00000244 Android
00000250 r26b
00000290 10909125
00002d73 <C2R
00002d9c XvpP@
00002dd2 $ P8"
00002e0b Cj,S
00002e31 7r4(
00002e4a ~}205
00002ee8 v2C=O
00002f47 qtL[O
00002f7f wY[Rxz
00002fa5 4:fR
00002fad ;GB8
0000303b `XAo
00003091 t4CR1-+
000030d9 __cxa_finalize
000030e8 __cxa_atexit
000030f5 __register_atfork
00003107 __android_log_is_loggable
00003121 __android_log_write_log_message
00003141 __android_log_print
00003155 __android_log_logd_logger
0000316f __android_log_call_aborter
0000318a __android_log_vprint
0000319f __android_log_write
000031b3 fstat
000031b9 _ZNSt6__ndk112basic_stringIcNS_11char_traitsIcEENS_9allocatorIcEEE7reserveEm
00003206 memset
0000320d read
00003212 _ZNSt6__ndk112basic_stringIcNS_11char_traitsIcEENS_9allocatorIcEEE6appendEPKcm
00003261 __errno
00003269 __stack_chk_fail
0000327a open
0000327f _ZNSt6__ndk112basic_stringIcNS_11char_traitsIcEENS_9allocatorIcEEEC2ERKS5_
000032ca basename
000032d3 _ZNSt6__ndk112basic_stringIcNS_11char_traitsIcEENS_9allocatorIcEEE6assignEPKc
00003321 _ZNSt6__ndk112basic_stringIcNS_11char_traitsIcEENS_9allocatorIcEEED2Ev
00003368 memmove
00003370 close
00003376 getpid
0000337d snprintf
00003386 strchr
0000338d strrchr
00003395 android_set_abort_message
000033af abort
000033b5 strlen
000033bc _ZNSt6__ndk112basic_stringIcNS_11char_traitsIcEENS_9allocatorIcEEE6__initEPKcm
0000340b _ZNSt6__ndk124__put_character_sequenceIcNS_11char_traitsIcEEEERNS_13basic_ostreamIT_T0_EES7_PKS4_m
0000346e _ZTVNSt6__ndk110__function6__funcIN7android4base10LogdLoggerENS_9allocatorIS4_EEFvNS3_5LogIdENS3_11LogSeverityEPKcSA_jSA_EEE
000034eb _ZTVNSt6__ndk110__function6__funcIPFvPKcENS_9allocatorIS5_EES4_EE
0000352d strerror
00003536 _ZNSt6__ndk112basic_stringIcNS_11char_traitsIcEENS_9allocatorIcEEE6appendEPKc
00003584 strcmp
0000358b _ZTVNSt6__ndk117bad_function_callE
000035ae _ZTINSt6__ndk117bad_function_callE
000035d1 _ZNSt6__ndk117bad_function_callD1Ev
000035f5 _ZTVNSt6__ndk119basic_ostringstreamIcNS_11char_traitsIcEENS_9allocatorIcEEEE
00003642 _ZTTNSt6__ndk119basic_ostringstreamIcNS_11char_traitsIcEENS_9allocatorIcEEEE
0000368f _ZNSt6__ndk113basic_ostreamIcNS_11char_traitsIcEEED2Ev
000036c6 _ZNSt6__ndk19basic_iosIcNS_11char_traitsIcEEED2Ev
000036f8 _ZNSt6__ndk115basic_streambufIcNS_11char_traitsIcEEEC2Ev
00003731 _ZTVNSt6__ndk115basic_stringbufIcNS_11char_traitsIcEENS_9allocatorIcEEEE
0000377a _ZNSt6__ndk18ios_base4initEPv
00003798 _ZNSt6__ndk115basic_streambufIcNS_11char_traitsIcEEED2Ev
000037d1 _ZTINSt6__ndk110__function6__funcIN7android4base10LogdLoggerENS_9allocatorIS4_EEFvNS3_5LogIdENS3_11LogSeverityEPKcSA_jSA_EEE
0000384e _ZTINSt6__ndk110__function6__baseIFvN7android4base5LogIdENS3_11LogSeverityEPKcS7_jS7_EEE
000038a7 _ZTINSt6__ndk110__function6__funcIPFvPKcENS_9allocatorIS5_EES4_EE
000038e9 _ZTINSt6__ndk110__function6__baseIFvPKcEEE
00003914 vsnprintf
0000391e _ZNSt6__ndk112basic_stringIcNS_11char_traitsIcEENS_9allocatorIcEEEC2ERKS5_mmRKS4_
00003970 memcmp
00003977 memcpy
0000397e gettid
00003985 _ZNSt6__ndk112basic_stringIcNS_11char_traitsIcEENS_9allocatorIcEEE9push_backEc
000039d4 _ZNSt6__ndk113basic_ostreamIcNS_11char_traitsIcEEElsEm
00003a0b _ZNSt6__ndk113basic_ostreamIcNS_11char_traitsIcEEElsEj
00003a42 _ZNSt6__ndk113basic_ostreamIcNS_11char_traitsIcEEElsEPKv
00003a7b _ZNSt6__ndk15dequeINS_4pairIjjEENS_9allocatorIS2_EEE12emplace_backIJjjEEERS2_DpOT_
00003ace _ZNSt6__ndk111__introsortINS_17_ClassicAlgPolicyERNS_6__lessIvvEENS_16__deque_iteratorINS_4pairIjjEEPS7_RS7_PS8_lLl512EEELb0EEEvT1_SC_T0_NS_15iterator_traitsISC_E15difference_typeEb
00003b84 malloc
00003b8b free
00003b90 _ZTVN11unwindstack20AndroidLocalUnwinderE
00003bba _ZNSt6__ndk111__call_onceERVmPvPFvS2_E
00003be1 _ZN11unwindstack4Regs11CurrentArchEv
00003c06 _ZN11unwindstack15AndroidUnwinder6UnwindENSt6__ndk18optionalIiEERNS_19AndroidUnwinderDataEbb
00003c63 _ZN11unwindstack4Regs18CreateFromUcontextENS_8ArchEnumEPv
00003c9d _ZN11unwindstack15AndroidUnwinder6UnwindEPNS_4RegsERNS_19AndroidUnwinderDataEbb
00003ced _ZTVN11unwindstack8UnwinderE
00003d0a _ZN11unwindstack4Regs15CreateFromLocalEv
00003d33 _ZTVN11unwindstack15UnwinderFromPidE
00003d58 _ZNSt6__ndk119__shared_weak_count14__release_weakEv
00003d8c _ZTVNSt6__ndk120__shared_ptr_pointerIPN11unwindstack18LocalUpdatableMapsENS_10shared_ptrINS1_4MapsEE27__shared_ptr_default_deleteIS5_S2_EENS_9allocatorIS2_EEEE
00003e2c _ZNSt6__ndk119__shared_weak_countD2Ev
00003e52 _ZTINSt6__ndk110shared_ptrIN11unwindstack4MapsEE27__shared_ptr_default_deleteIS2_NS1_18LocalUpdatableMapsEEE
00003ebf _ZTVNSt6__ndk120__shared_ptr_pointerIPN11unwindstack10RemoteMapsENS_10shared_ptrINS1_4MapsEE27__shared_ptr_default_deleteIS5_S2_EENS_9allocatorIS2_EEEE
00003f57 _ZTINSt6__ndk110shared_ptrIN11unwindstack4MapsEE27__shared_ptr_default_deleteIS2_NS1_10RemoteMapsEEE
00003fbc _ZTINSt6__ndk120__shared_ptr_pointerIPN11unwindstack18LocalUpdatableMapsENS_10shared_ptrINS1_4MapsEE27__shared_ptr_default_deleteIS5_S2_EENS_9allocatorIS2_EEEE
0000405c _ZTINSt6__ndk119__shared_weak_countE
00004081 _ZTINSt6__ndk114default_deleteIN11unwindstack18LocalUpdatableMapsEEE
000040c6 _ZTINSt6__ndk120__shared_ptr_pointerIPN11unwindstack10RemoteMapsENS_10shared_ptrINS1_4MapsEE27__shared_ptr_default_deleteIS5_S2_EENS_9allocatorIS2_EEEE
0000415e _ZTINSt6__ndk114default_deleteIN11unwindstack10RemoteMapsEEE
0000419b _ZNKSt6__ndk16__treeINS_12__value_typeIhiEENS_19__map_value_compareIhS2_NS_4lessIhEELb1EEENS_9allocatorIS2_EEE14__count_uniqueIhEEmRKT_
00004223 _ZNSt6__ndk119piecewise_constructE
00004246 _ZNSt6__ndk16__treeINS_12__value_typeIhiEENS_19__map_value_compareIhS2_NS_4lessIhEELb1EEENS_9allocatorIS2_EEE25__emplace_unique_key_argsIhJRKNS_21piecewise_construct_tENS_5tupleIJRKhEEENSE_IJEEEEEENS_4pairINS_15__tree_iteratorIS2_PNS_11__tree_nodeIS2_PvEElEEbEERKT_DpOT0_
00004356 _ZNSt6__ndk16__treeINS_12__value_typeIhiEENS_19__map_value_compareIhS2_NS_4lessIhEELb1EEENS_9allocatorIS2_EEE25__emplace_unique_key_argsIhJRKNS_21piecewise_construct_tENS_5tupleIJOhEEENSE_IJEEEEEENS_4pairINS_15__tree_iteratorIS2_PNS_11__tree_nodeIS2_PvEElEEbEERKT_DpOT0_
00004465 _ZNSt6__ndk16__treeINS_12__value_typeIhiEENS_19__map_value_compareIhS2_NS_4lessIhEELb1EEENS_9allocatorIS2_EEE12__find_equalIhEERPNS_16__tree_node_baseIPvEERPNS_15__tree_end_nodeISE_EERKT_
00004521 _ZNSt6__ndk15mutex4lockEv
0000453b _ZNSt6__ndk15mutex6unlockEv
00004557 _ZNSt6__ndk16__treeINS_12__value_typeINS_5tupleIJNS_12basic_stringIcNS_11char_traitsIcEENS_9allocatorIcEEEEmmEEENS_8weak_ptrIN11unwindstack7DexFile10DexFileApiEEEEENS_19__map_value_compareIS9_SF_NS_4lessIS9_EELb1EEENS6_ISF_EEE25__emplace_unique_key_argsIS9_JRKNS_21piecewise_construct_tENS2_IJRKS9_EEENS2_IJEEEEEENS_4pairINS_15__tree_iteratorISF_PNS_11__tree_nodeISF_PvEElEEbEERKT_DpOT0_
000046db _ZNSt6__ndk119__shared_weak_count4lockEv
00004704 _ZTVNSt6__ndk120__shared_ptr_pointerIPN11unwindstack7DexFileENS_10shared_ptrIS2_E27__shared_ptr_default_deleteIS2_S2_EENS_9allocatorIS2_EEEE
00004791 _ZTVNSt6__ndk120__shared_ptr_pointerIPN11unwindstack12MemoryBufferENS_14default_deleteIS2_EENS_9allocatorIS2_EEEE
00004803 _ZTVNSt6__ndk120__shared_ptr_pointerIPN11unwindstack7DexFile10DexFileApiENS_10shared_ptrIS3_E27__shared_ptr_default_deleteIS3_S3_EENS_9allocatorIS3_EEEE
0000489c _ZTVNSt6__ndk120__shared_ptr_emplaceIKNS_12basic_stringIcNS_11char_traitsIcEENS_9allocatorIcEEEENS4_IS6_EEEE
00004909 _ZNSt6__ndk16__treeINS_12__value_typeINS_5tupleIJNS_12basic_stringIcNS_11char_traitsIcEENS_9allocatorIcEEEEmmEEENS_8weak_ptrIN11unwindstack7DexFile10DexFileApiEEEEENS_19__map_value_compareIS9_SF_NS_4lessIS9_EELb1EEENS6_ISF_EEE12__find_equalIS9_EERPNS_16__tree_node_baseIPvEERPNS_15__tree_end_nodeISQ_EERKT_
00004a3c _ZNSt6__ndk16__treeINS_12__value_typeINS_5tupleIJNS_12basic_stringIcNS_11char_traitsIcEENS_9allocatorIcEEEEmmEEENS_8weak_ptrIN11unwindstack7DexFile10DexFileApiEEEEENS_19__map_value_compareIS9_SF_NS_4lessIS9_EELb1EEENS6_ISF_EEE16__construct_nodeIJRKNS_21piecewise_construct_tENS2_IJRKS9_EEENS2_IJEEEEEENS_10unique_ptrINS_11__tree_nodeISF_PvEENS_22__tree_node_destructorINS6_ISX_EEEEEEDpOT_
00004bc1 _ZTINSt6__ndk110shared_ptrIN11unwindstack7DexFileEE27__shared_ptr_default_deleteIS2_S2_EE
00004c1b _ZNSt6__ndk15mutexD1Ev
00004c32 _ZTINSt6__ndk114default_deleteIN11unwindstack12MemoryBufferEEE
00004c71 _ZTINSt6__ndk110shared_ptrIN11unwindstack7DexFile10DexFileApiEE27__shared_ptr_default_deleteIS3_S3_EE
00004cd7 _ZNSt6__ndk16__treeINS_12__value_typeIjN11unwindstack7DexFile4InfoEEENS_19__map_value_compareIjS5_NS_4lessIjEELb1EEENS_9allocatorIS5_EEE13__upper_boundIjEENS_15__tree_iteratorIS5_PNS_11__tree_nodeIS5_PvEElEERKT_SI_PNS_15__tree_end_nodeIPNS_16__tree_node_baseISG_EEEE
00004de2 _ZNSt6__ndk16__treeINS_12__value_typeIjN11unwindstack7DexFile4InfoEEENS_19__map_value_compareIjS5_NS_4lessIjEELb1EEENS_9allocatorIS5_EEE21__emplace_unique_implIJmS4_EEENS_4pairINS_15__tree_iteratorIS5_PNS_11__tree_nodeIS5_PvEElEEbEEDpOT_
00004ed0 _ZNSt6__ndk16__treeINS_12__value_typeIjN11unwindstack7DexFile4InfoEEENS_19__map_value_compareIjS5_NS_4lessIjEELb1EEENS_9allocatorIS5_EEE16__construct_nodeIJmS4_EEENS_10unique_ptrINS_11__tree_nodeIS5_PvEENS_22__tree_node_destructorINSA_ISH_EEEEEEDpOT_
00004fcb _ZNSt6__ndk16__treeINS_12__value_typeIjN11unwindstack7DexFile4InfoEEENS_19__map_value_compareIjS5_NS_4lessIjEELb1EEENS_9allocatorIS5_EEE12__find_equalIS5_EERPNS_16__tree_node_baseIPvEERPNS_15__tree_end_nodeISH_EERKT_
000050a4 _ZTINSt6__ndk120__shared_ptr_emplaceIKNS_12basic_stringIcNS_11char_traitsIcEENS_9allocatorIcEEEENS4_IS6_EEEE
00005111 _ZNKSt6__ndk119__shared_weak_count13__get_deleterERKSt9type_info
00005152 _ZTINSt6__ndk120__shared_ptr_pointerIPN11unwindstack7DexFileENS_10shared_ptrIS2_E27__shared_ptr_default_deleteIS2_S2_EENS_9allocatorIS2_EEEE
000051df _ZTINSt6__ndk114default_deleteIN11unwindstack7DexFileEEE
00005218 _ZTINSt6__ndk120__shared_ptr_pointerIPN11unwindstack12MemoryBufferENS_14default_deleteIS2_EENS_9allocatorIS2_EEEE
0000528a _ZTINSt6__ndk120__shared_ptr_pointerIPN11unwindstack7DexFile10DexFileApiENS_10shared_ptrIS3_E27__shared_ptr_default_deleteIS3_S3_EENS_9allocatorIS3_EEEE
00005323 _ZTINSt6__ndk114default_deleteIN11unwindstack7DexFile10DexFileApiEEE
00005368 _ZNSt6__ndk16__treeINS_12__value_typeIN11unwindstack15GlobalDebugImplINS2_7DexFileEjNS2_8Uint64_PEE3UIDENS_10shared_ptrIS4_EEEENS_19__map_value_compareIS7_SA_NS_4lessIS7_EELb1EEENS_9allocatorISA_EEE4findIS7_EENS_15__tree_iteratorISA_PNS_11__tree_nodeISA_PvEElEERKT_
00005472 _ZNKSt6__ndk16__treeINS_12__value_typeIN11unwindstack15GlobalDebugImplINS2_7DexFileEjNS2_8Uint64_PEE3UIDENS_10shared_ptrIS4_EEEENS_19__map_value_compareIS7_SA_NS_4lessIS7_EELb1EEENS_9allocatorISA_EEE4findIS7_EENS_21__tree_const_iteratorISA_PNS_11__tree_nodeISA_PvEElEERKT_
00005583 _ZNKSt6__ndk16__treeINS_12__value_typeIN11unwindstack15GlobalDebugImplINS2_7DexFileEjNS2_8Uint64_PEE3UIDENS_10shared_ptrIS4_EEEENS_19__map_value_compareIS7_SA_NS_4lessIS7_EELb1EEENS_9allocatorISA_EEE13__lower_boundIS7_EENS_21__tree_const_iteratorISA_PNS_11__tree_nodeISA_PvEElEERKT_SN_PNS_15__tree_end_nodeIPNS_16__tree_node_baseISL_EEEE
000056d5 _ZNSt6__ndk16__treeINS_12__value_typeIN11unwindstack15GlobalDebugImplINS2_7DexFileEjNS2_8Uint64_PEE3UIDENS_10shared_ptrIS4_EEEENS_19__map_value_compareIS7_SA_NS_4lessIS7_EELb1EEENS_9allocatorISA_EEE13__lower_boundIS7_EENS_15__tree_iteratorISA_PNS_11__tree_nodeISA_PvEElEERKT_SN_PNS_15__tree_end_nodeIPNS_16__tree_node_baseISL_EEEE
00005820 _ZNSt6__ndk16__treeINS_12__value_typeIN11unwindstack15GlobalDebugImplINS2_7DexFileEjNS2_8Uint64_PEE3UIDENS_10shared_ptrIS4_EEEENS_19__map_value_compareIS7_SA_NS_4lessIS7_EELb1EEENS_9allocatorISA_EEE25__emplace_unique_key_argsIS7_JRS7_RS9_EEENS_4pairINS_15__tree_iteratorISA_PNS_11__tree_nodeISA_PvEElEEbEERKT_DpOT0_
0000595c _ZNSt6__ndk16__treeINS_12__value_typeIN11unwindstack15GlobalDebugImplINS2_7DexFileEjNS2_8Uint64_PEE3UIDENS_10shared_ptrIS4_EEEENS_19__map_value_compareIS7_SA_NS_4lessIS7_EELb1EEENS_9allocatorISA_EEE12__find_equalIS7_EERPNS_16__tree_node_baseIPvEERPNS_15__tree_end_nodeISM_EERKT_
00005a73 _ZNSt6__ndk16__treeINS_12__value_typeIN11unwindstack15GlobalDebugImplINS2_7DexFileEjNS2_8Uint64_PEE3UIDENS_10shared_ptrIS4_EEEENS_19__map_value_compareIS7_SA_NS_4lessIS7_EELb1EEENS_9allocatorISA_EEE16__construct_nodeIJRS7_RS9_EEENS_10unique_ptrINS_11__tree_nodeISA_PvEENS_22__tree_node_destructorINSF_ISO_EEEEEEDpOT_
00005bb0 _ZNSt6__ndk16__treeINS_12__value_typeIN11unwindstack15GlobalDebugImplINS2_7DexFileEjNS2_8Uint64_AEE3UIDENS_10shared_ptrIS4_EEEENS_19__map_value_compareIS7_SA_NS_4lessIS7_EELb1EEENS_9allocatorISA_EEE4findIS7_EENS_15__tree_iteratorISA_PNS_11__tree_nodeISA_PvEElEERKT_
00005cba _ZNKSt6__ndk16__treeINS_12__value_typeIN11unwindstack15GlobalDebugImplINS2_7DexFileEjNS2_8Uint64_AEE3UIDENS_10shared_ptrIS4_EEEENS_19__map_value_compareIS7_SA_NS_4lessIS7_EELb1EEENS_9allocatorISA_EEE4findIS7_EENS_21__tree_const_iteratorISA_PNS_11__tree_nodeISA_PvEElEERKT_
00005dcb _ZNKSt6__ndk16__treeINS_12__value_typeIN11unwindstack15GlobalDebugImplINS2_7DexFileEjNS2_8Uint64_AEE3UIDENS_10shared_ptrIS4_EEEENS_19__map_value_compareIS7_SA_NS_4lessIS7_EELb1EEENS_9allocatorISA_EEE13__lower_boundIS7_EENS_21__tree_const_iteratorISA_PNS_11__tree_nodeISA_PvEElEERKT_SN_PNS_15__tree_end_nodeIPNS_16__tree_node_baseISL_EEEE
00005f1d _ZNSt6__ndk16__treeINS_12__value_typeIN11unwindstack15GlobalDebugImplINS2_7DexFileEjNS2_8Uint64_AEE3UIDENS_10shared_ptrIS4_EEEENS_19__map_value_compareIS7_SA_NS_4lessIS7_EELb1EEENS_9allocatorISA_EEE13__lower_boundIS7_EENS_15__tree_iteratorISA_PNS_11__tree_nodeISA_PvEElEERKT_SN_PNS_15__tree_end_nodeIPNS_16__tree_node_baseISL_EEEE
00006068 _ZNSt6__ndk16__treeINS_12__value_typeIN11unwindstack15GlobalDebugImplINS2_7DexFileEjNS2_8Uint64_AEE3UIDENS_10shared_ptrIS4_EEEENS_19__map_value_compareIS7_SA_NS_4lessIS7_EELb1EEENS_9allocatorISA_EEE25__emplace_unique_key_argsIS7_JRS7_RS9_EEENS_4pairINS_15__tree_iteratorISA_PNS_11__tree_nodeISA_PvEElEEbEERKT_DpOT0_
000061a4 _ZNSt6__ndk16__treeINS_12__value_typeIN11unwindstack15GlobalDebugImplINS2_7DexFileEjNS2_8Uint64_AEE3UIDENS_10shared_ptrIS4_EEEENS_19__map_value_compareIS7_SA_NS_4lessIS7_EELb1EEENS_9allocatorISA_EEE12__find_equalIS7_EERPNS_16__tree_node_baseIPvEERPNS_15__tree_end_nodeISM_EERKT_
000062bb _ZNSt6__ndk16__treeINS_12__value_typeIN11unwindstack15GlobalDebugImplINS2_7DexFileEjNS2_8Uint64_AEE3UIDENS_10shared_ptrIS4_EEEENS_19__map_value_compareIS7_SA_NS_4lessIS7_EELb1EEENS_9allocatorISA_EEE16__construct_nodeIJRS7_RS9_EEENS_10unique_ptrINS_11__tree_nodeISA_PvEENS_22__tree_node_destructorINSF_ISO_EEEEEEDpOT_
000063f8 _ZNSt6__ndk16__treeINS_12__value_typeIN11unwindstack15GlobalDebugImplINS2_7DexFileEmNS2_8Uint64_AEE3UIDENS_10shared_ptrIS4_EEEENS_19__map_value_compareIS7_SA_NS_4lessIS7_EELb1EEENS_9allocatorISA_EEE4findIS7_EENS_15__tree_iteratorISA_PNS_11__tree_nodeISA_PvEElEERKT_
00006502 _ZNKSt6__ndk16__treeINS_12__value_typeIN11unwindstack15GlobalDebugImplINS2_7DexFileEmNS2_8Uint64_AEE3UIDENS_10shared_ptrIS4_EEEENS_19__map_value_compareIS7_SA_NS_4lessIS7_EELb1EEENS_9allocatorISA_EEE4findIS7_EENS_21__tree_const_iteratorISA_PNS_11__tree_nodeISA_PvEElEERKT_
00006613 _ZNKSt6__ndk16__treeINS_12__value_typeIN11unwindstack15GlobalDebugImplINS2_7DexFileEmNS2_8Uint64_AEE3UIDENS_10shared_ptrIS4_EEEENS_19__map_value_compareIS7_SA_NS_4lessIS7_EELb1EEENS_9allocatorISA_EEE13__lower_boundIS7_EENS_21__tree_const_iteratorISA_PNS_11__tree_nodeISA_PvEElEERKT_SN_PNS_15__tree_end_nodeIPNS_16__tree_node_baseISL_EEEE
00006765 _ZNSt6__ndk16__treeINS_12__value_typeIN11unwindstack15GlobalDebugImplINS2_7DexFileEmNS2_8Uint64_AEE3UIDENS_10shared_ptrIS4_EEEENS_19__map_value_compareIS7_SA_NS_4lessIS7_EELb1EEENS_9allocatorISA_EEE13__lower_boundIS7_EENS_15__tree_iteratorISA_PNS_11__tree_nodeISA_PvEElEERKT_SN_PNS_15__tree_end_nodeIPNS_16__tree_node_baseISL_EEEE
000068b0 _ZNSt6__ndk16__treeINS_12__value_typeIN11unwindstack15GlobalDebugImplINS2_7DexFileEmNS2_8Uint64_AEE3UIDENS_10shared_ptrIS4_EEEENS_19__map_value_compareIS7_SA_NS_4lessIS7_EELb1EEENS_9allocatorISA_EEE25__emplace_unique_key_argsIS7_JRS7_RS9_EEENS_4pairINS_15__tree_iteratorISA_PNS_11__tree_nodeISA_PvEElEEbEERKT_DpOT0_
000069ec _ZNSt6__ndk16__treeINS_12__value_typeIN11unwindstack15GlobalDebugImplINS2_7DexFileEmNS2_8Uint64_AEE3UIDENS_10shared_ptrIS4_EEEENS_19__map_value_compareIS7_SA_NS_4lessIS7_EELb1EEENS_9allocatorISA_EEE12__find_equalIS7_EERPNS_16__tree_node_baseIPvEERPNS_15__tree_end_nodeISM_EERKT_
00006b03 _ZNSt6__ndk16__treeINS_12__value_typeIN11unwindstack15GlobalDebugImplINS2_7DexFileEmNS2_8Uint64_AEE3UIDENS_10shared_ptrIS4_EEEENS_19__map_value_compareIS7_SA_NS_4lessIS7_EELb1EEENS_9allocatorISA_EEE16__construct_nodeIJRS7_RS9_EEENS_10unique_ptrINS_11__tree_nodeISA_PvEENS_22__tree_node_destructorINSF_ISO_EEEEEEDpOT_
00006c40 _ZNKSt6__ndk112__hash_tableINS_17__hash_value_typeIjN11unwindstack13DwarfLocationEEENS_22__unordered_map_hasherIjS4_NS_4hashIjEENS_8equal_toIjEELb1EEENS_21__unordered_map_equalIjS4_S9_S7_Lb1EEENS_9allocatorIS4_EEE4findIjEENS_21__hash_const_iteratorIPNS_11__hash_nodeIS4_PvEEEERKT_
00006d59 _ZNSt6__ndk112__hash_tableINS_17__hash_value_typeIjN11unwindstack13DwarfLocationEEENS_22__unordered_map_hasherIjS4_NS_4hashIjEENS_8equal_toIjEELb1EEENS_21__unordered_map_equalIjS4_S9_S7_Lb1EEENS_9allocatorIS4_EEE14__erase_uniqueIjEEmRKT_
00006e47 _ZNSt6__ndk112__hash_tableINS_17__hash_value_typeIjN11unwindstack13DwarfLocationEEENS_22__unordered_map_hasherIjS4_NS_4hashIjEENS_8equal_toIjEELb1EEENS_21__unordered_map_equalIjS4_S9_S7_Lb1EEENS_9allocatorIS4_EEE25__emplace_unique_key_argsIjJRKNS_21piecewise_construct_tENS_5tupleIJRKjEEENSK_IJEEEEEENS_4pairINS_15__hash_iteratorIPNS_11__hash_nodeIS4_PvEEEEbEERKT_DpOT0_
00006fba _ZNSt6__ndk112__hash_tableINS_17__hash_value_typeIjN11unwindstack13DwarfLocationEEENS_22__unordered_map_hasherIjS4_NS_4hashIjEENS_8equal_toIjEELb1EEENS_21__unordered_map_equalIjS4_S9_S7_Lb1EEENS_9allocatorIS4_EEE25__emplace_unique_key_argsIjJRKNS_21piecewise_construct_tENS_5tupleIJOjEEENSK_IJEEEEEENS_4pairINS_15__hash_iteratorIPNS_11__hash_nodeIS4_PvEEEEbEERKT_DpOT0_
0000712c _ZNSt6__ndk19to_stringEm
00007145 _ZNSt6__ndk19to_stringEi
0000715e _ZNSt6__ndk112basic_stringIcNS_11char_traitsIcEENS_9allocatorIcEEE6insertEmPKc
000071ad _ZNSt6__ndk112__hash_tableINS_17__hash_value_typeIjN11unwindstack13DwarfLocationEEENS_22__unordered_map_hasherIjS4_NS_4hashIjEENS_8equal_toIjEELb1EEENS_21__unordered_map_equalIjS4_S9_S7_Lb1EEENS_9allocatorIS4_EEE4findIjEENS_15__hash_iteratorIPNS_11__hash_nodeIS4_PvEEEERKT_
000072bf _ZNSt6__ndk19to_stringEl
000072d8 _ZNSt6__ndk112__hash_tableINS_17__hash_value_typeIjN11unwindstack13DwarfLocationEEENS_22__unordered_map_hasherIjS4_NS_4hashIjEENS_8equal_toIjEELb1EEENS_21__unordered_map_equalIjS4_S9_S7_Lb1EEENS_9allocatorIS4_EEE14__assign_multiINS_21__hash_const_iteratorIPNS_11__hash_nodeIS4_PvEEEEEEvT_SN_
000073fc _ZNSt6__ndk112__hash_tableINS_17__hash_value_typeIjN11unwindstack13DwarfLocationEEENS_22__unordered_map_hasherIjS4_NS_4hashIjEENS_8equal_toIjEELb1EEENS_21__unordered_map_equalIjS4_S9_S7_Lb1EEENS_9allocatorIS4_EEE15__emplace_multiIJRKNS_4pairIKjS3_EEEEENS_15__hash_iteratorIPNS_11__hash_nodeIS4_PvEEEEDpOT_
0000752e _ZNSt6__ndk112__hash_tableINS_17__hash_value_typeIjN11unwindstack13DwarfLocationEEENS_22__unordered_map_hasherIjS4_NS_4hashIjEENS_8equal_toIjEELb1EEENS_21__unordered_map_equalIjS4_S9_S7_Lb1EEENS_9allocatorIS4_EEE8__rehashILb0EEEvm
00007615 _ZNSt6__ndk112__next_primeEm
00007632 _ZNSt6__ndk112__hash_tableINS_17__hash_value_typeIjN11unwindstack13DwarfLocationEEENS_22__unordered_map_hasherIjS4_NS_4hashIjEENS_8equal_toIjEELb1EEENS_21__unordered_map_equalIjS4_S9_S7_Lb1EEENS_9allocatorIS4_EEE11__do_rehashILb0EEEvm
0000771d _ZNSt6__ndk112__hash_tableINS_17__hash_value_typeIjN11unwindstack13DwarfLocationEEENS_22__unordered_map_hasherIjS4_NS_4hashIjEENS_8equal_toIjEELb1EEENS_21__unordered_map_equalIjS4_S9_S7_Lb1EEENS_9allocatorIS4_EEE16__construct_nodeIJRKNS_4pairIKjS3_EEEEENS_10unique_ptrINS_11__hash_nodeIS4_PvEENS_22__hash_node_destructorINSD_ISP_EEEEEEDpOT_
00007872 _ZNSt6__ndk112__hash_tableINS_17__hash_value_typeIjN11unwindstack13DwarfLocationEEENS_22__unordered_map_hasherIjS4_NS_4hashIjEENS_8equal_toIjEELb1EEENS_21__unordered_map_equalIjS4_S9_S7_Lb1EEENS_9allocatorIS4_EEE21__construct_node_hashIRKNS_21piecewise_construct_tEJNS_5tupleIJRKjEEENSK_IJEEEEEENS_10unique_ptrINS_11__hash_nodeIS4_PvEENS_22__hash_node_destructorINSD_ISS_EEEEEEmOT_DpOT0_
000079f6 _ZNSt6__ndk112__hash_tableINS_17__hash_value_typeIjN11unwindstack13DwarfLocationEEENS_22__unordered_map_hasherIjS4_NS_4hashIjEENS_8equal_toIjEELb1EEENS_21__unordered_map_equalIjS4_S9_S7_Lb1EEENS_9allocatorIS4_EEE8__rehashILb1EEEvm
00007add _ZNSt6__ndk112__hash_tableINS_17__hash_value_typeIjN11unwindstack13DwarfLocationEEENS_22__unordered_map_hasherIjS4_NS_4hashIjEENS_8equal_toIjEELb1EEENS_21__unordered_map_equalIjS4_S9_S7_Lb1EEENS_9allocatorIS4_EEE11__do_rehashILb1EEEvm
00007bc8 _ZNSt6__ndk112__hash_tableINS_17__hash_value_typeIjN11unwindstack13DwarfLocationEEENS_22__unordered_map_hasherIjS4_NS_4hashIjEENS_8equal_toIjEELb1EEENS_21__unordered_map_equalIjS4_S9_S7_Lb1EEENS_9allocatorIS4_EEE21__construct_node_hashIRKNS_21piecewise_construct_tEJNS_5tupleIJOjEEENSK_IJEEEEEENS_10unique_ptrINS_11__hash_nodeIS4_PvEENS_22__hash_node_destructorINSD_ISR_EEEEEEmOT_DpOT0_
00007d4b _ZNSt6__ndk112__hash_tableINS_17__hash_value_typeIjN11unwindstack13DwarfLocationEEENS_22__unordered_map_hasherIjS4_NS_4hashIjEENS_8equal_toIjEELb1EEENS_21__unordered_map_equalIjS4_S9_S7_Lb1EEENS_9allocatorIS4_EEE25__emplace_unique_key_argsIjJRKNS_4pairIKjS3_EEEEENSH_INS_15__hash_iteratorIPNS_11__hash_nodeIS4_PvEEEEbEERKT_DpOT0_
00007e95 _ZNSt6__ndk112__hash_tableINS_17__hash_value_typeImN11unwindstack19DwarfEhFrameWithHdrIjE7FdeInfoEEENS_22__unordered_map_hasherImS6_NS_4hashImEENS_8equal_toImEELb1EEENS_21__unordered_map_equalImS6_SB_S9_Lb1EEENS_9allocatorIS6_EEE4findImEENS_15__hash_iteratorIPNS_11__hash_nodeIS6_PvEEEERKT_
00007fb8 _ZNSt6__ndk112__hash_tableINS_17__hash_value_typeImN11unwindstack19DwarfEhFrameWithHdrIjE7FdeInfoEEENS_22__unordered_map_hasherImS6_NS_4hashImEENS_8equal_toImEELb1EEENS_21__unordered_map_equalImS6_SB_S9_Lb1EEENS_9allocatorIS6_EEE14__erase_uniqueImEEmRKT_
000080b7 _ZNSt6__ndk112__hash_tableINS_17__hash_value_typeImN11unwindstack19DwarfEhFrameWithHdrIjE7FdeInfoEEENS_22__unordered_map_hasherImS6_NS_4hashImEENS_8equal_toImEELb1EEENS_21__unordered_map_equalImS6_SB_S9_Lb1EEENS_9allocatorIS6_EEE25__emplace_unique_key_argsImJRKNS_21piecewise_construct_tENS_5tupleIJRKmEEENSM_IJEEEEEENS_4pairINS_15__hash_iteratorIPNS_11__hash_nodeIS6_PvEEEEbEERKT_DpOT0_
0000823b _ZNSt6__ndk112__hash_tableINS_17__hash_value_typeImN11unwindstack19DwarfEhFrameWithHdrImE7FdeInfoEEENS_22__unordered_map_hasherImS6_NS_4hashImEENS_8equal_toImEELb1EEENS_21__unordered_map_equalImS6_SB_S9_Lb1EEENS_9allocatorIS6_EEE4findImEENS_15__hash_iteratorIPNS_11__hash_nodeIS6_PvEEEERKT_
0000835e _ZNSt6__ndk112__hash_tableINS_17__hash_value_typeImN11unwindstack19DwarfEhFrameWithHdrImE7FdeInfoEEENS_22__unordered_map_hasherImS6_NS_4hashImEENS_8equal_toImEELb1EEENS_21__unordered_map_equalImS6_SB_S9_Lb1EEENS_9allocatorIS6_EEE14__erase_uniqueImEEmRKT_
0000845d _ZNSt6__ndk112__hash_tableINS_17__hash_value_typeImN11unwindstack19DwarfEhFrameWithHdrImE7FdeInfoEEENS_22__unordered_map_hasherImS6_NS_4hashImEENS_8equal_toImEELb1EEENS_21__unordered_map_equalImS6_SB_S9_Lb1EEENS_9allocatorIS6_EEE25__emplace_unique_key_argsImJRKNS_21piecewise_construct_tENS_5tupleIJRKmEEENSM_IJEEEEEENS_4pairINS_15__hash_iteratorIPNS_11__hash_nodeIS6_PvEEEEbEERKT_DpOT0_
000085e1 _ZNSt6__ndk112__hash_tableINS_17__hash_value_typeImN11unwindstack19DwarfEhFrameWithHdrIjE7FdeInfoEEENS_22__unordered_map_hasherImS6_NS_4hashImEENS_8equal_toImEELb1EEENS_21__unordered_map_equalImS6_SB_S9_Lb1EEENS_9allocatorIS6_EEE21__construct_node_hashIRKNS_21piecewise_construct_tEJNS_5tupleIJRKmEEENSM_IJEEEEEENS_10unique_ptrINS_11__hash_nodeIS6_PvEENS_22__hash_node_destructorINSF_ISU_EEEEEEmOT_DpOT0_
00008776 _ZNSt6__ndk112__hash_tableINS_17__hash_value_typeImN11unwindstack19DwarfEhFrameWithHdrIjE7FdeInfoEEENS_22__unordered_map_hasherImS6_NS_4hashImEENS_8equal_toImEELb1EEENS_21__unordered_map_equalImS6_SB_S9_Lb1EEENS_9allocatorIS6_EEE8__rehashILb1EEEvm
0000886e _ZNSt6__ndk112__hash_tableINS_17__hash_value_typeImN11unwindstack19DwarfEhFrameWithHdrIjE7FdeInfoEEENS_22__unordered_map_hasherImS6_NS_4hashImEENS_8equal_toImEELb1EEENS_21__unordered_map_equalImS6_SB_S9_Lb1EEENS_9allocatorIS6_EEE11__do_rehashILb1EEEvm
0000896a _ZNSt6__ndk112__hash_tableINS_17__hash_value_typeImN11unwindstack19DwarfEhFrameWithHdrImE7FdeInfoEEENS_22__unordered_map_hasherImS6_NS_4hashImEENS_8equal_toImEELb1EEENS_21__unordered_map_equalImS6_SB_S9_Lb1EEENS_9allocatorIS6_EEE21__construct_node_hashIRKNS_21piecewise_construct_tEJNS_5tupleIJRKmEEENSM_IJEEEEEENS_10unique_ptrINS_11__hash_nodeIS6_PvEENS_22__hash_node_destructorINSF_ISU_EEEEEEmOT_DpOT0_
00008aff _ZNSt6__ndk112__hash_tableINS_17__hash_value_typeImN11unwindstack19DwarfEhFrameWithHdrImE7FdeInfoEEENS_22__unordered_map_hasherImS6_NS_4hashImEENS_8equal_toImEELb1EEENS_21__unordered_map_equalImS6_SB_S9_Lb1EEENS_9allocatorIS6_EEE8__rehashILb1EEEvm
00008bf7 _ZNSt6__ndk112__hash_tableINS_17__hash_value_typeImN11unwindstack19DwarfEhFrameWithHdrImE7FdeInfoEEENS_22__unordered_map_hasherImS6_NS_4hashImEENS_8equal_toImEELb1EEENS_21__unordered_map_equalImS6_SB_S9_Lb1EEENS_9allocatorIS6_EEE11__do_rehashILb1EEEvm
00008cf3 _ZNSt6__ndk112basic_stringIcNS_11char_traitsIcEENS_9allocatorIcEEE6insertENS_11__wrap_iterIPKcEEc
00008d55 _ZNSt6__ndk112__hash_tableINS_17__hash_value_typeImN11unwindstack8DwarfCieEEENS_22__unordered_map_hasherImS4_NS_4hashImEENS_8equal_toImEELb1EEENS_21__unordered_map_equalImS4_S9_S7_Lb1EEENS_9allocatorIS4_EEE4findImEENS_15__hash_iteratorIPNS_11__hash_nodeIS4_PvEEEERKT_
00008e61 _ZNSt6__ndk112__hash_tableINS_17__hash_value_typeImN11unwindstack8DwarfCieEEENS_22__unordered_map_hasherImS4_NS_4hashImEENS_8equal_toImEELb1EEENS_21__unordered_map_equalImS4_S9_S7_Lb1EEENS_9allocatorIS4_EEE14__erase_uniqueImEEmRKT_
00008f49 _ZNSt6__ndk112__hash_tableINS_17__hash_value_typeImN11unwindstack8DwarfCieEEENS_22__unordered_map_hasherImS4_NS_4hashImEENS_8equal_toImEELb1EEENS_21__unordered_map_equalImS4_S9_S7_Lb1EEENS_9allocatorIS4_EEE25__emplace_unique_key_argsImJRKNS_21piecewise_construct_tENS_5tupleIJRKmEEENSK_IJEEEEEENS_4pairINS_15__hash_iteratorIPNS_11__hash_nodeIS4_PvEEEEbEERKT_DpOT0_
000090b6 _ZNSt6__ndk112__hash_tableINS_17__hash_value_typeImN11unwindstack8DwarfFdeEEENS_22__unordered_map_hasherImS4_NS_4hashImEENS_8equal_toImEELb1EEENS_21__unordered_map_equalImS4_S9_S7_Lb1EEENS_9allocatorIS4_EEE4findImEENS_15__hash_iteratorIPNS_11__hash_nodeIS4_PvEEEERKT_
000091c2 _ZNSt6__ndk112__hash_tableINS_17__hash_value_typeImN11unwindstack8DwarfFdeEEENS_22__unordered_map_hasherImS4_NS_4hashImEENS_8equal_toImEELb1EEENS_21__unordered_map_equalImS4_S9_S7_Lb1EEENS_9allocatorIS4_EEE14__erase_uniqueImEEmRKT_
000092aa _ZNSt6__ndk112__hash_tableINS_17__hash_value_typeImN11unwindstack8DwarfFdeEEENS_22__unordered_map_hasherImS4_NS_4hashImEENS_8equal_toImEELb1EEENS_21__unordered_map_equalImS4_S9_S7_Lb1EEENS_9allocatorIS4_EEE25__emplace_unique_key_argsImJRKNS_21piecewise_construct_tENS_5tupleIJRKmEEENSK_IJEEEEEENS_4pairINS_15__hash_iteratorIPNS_11__hash_nodeIS4_PvEEEEbEERKT_DpOT0_
00009417 _ZNSt6__ndk112__hash_tableINS_17__hash_value_typeImN11unwindstack14DwarfLocationsEEENS_22__unordered_map_hasherImS4_NS_4hashImEENS_8equal_toImEELb1EEENS_21__unordered_map_equalImS4_S9_S7_Lb1EEENS_9allocatorIS4_EEE4findImEENS_15__hash_iteratorIPNS_11__hash_nodeIS4_PvEEEERKT_
0000952a _ZNSt6__ndk112__hash_tableINS_17__hash_value_typeImN11unwindstack14DwarfLocationsEEENS_22__unordered_map_hasherImS4_NS_4hashImEENS_8equal_toImEELb1EEENS_21__unordered_map_equalImS4_S9_S7_Lb1EEENS_9allocatorIS4_EEE25__emplace_unique_key_argsImJRKNS_21piecewise_construct_tENS_5tupleIJRKmEEENSK_IJEEEEEENS_4pairINS_15__hash_iteratorIPNS_11__hash_nodeIS4_PvEEEEbEERKT_DpOT0_
0000969e _ZNKSt6__ndk112__hash_tableINS_17__hash_value_typeImN11unwindstack8DwarfCieEEENS_22__unordered_map_hasherImS4_NS_4hashImEENS_8equal_toImEELb1EEENS_21__unordered_map_equalImS4_S9_S7_Lb1EEENS_9allocatorIS4_EEE4findImEENS_21__hash_const_iteratorIPNS_11__hash_nodeIS4_PvEEEERKT_
000097b1 _ZNSt6__ndk111__introsortINS_17_ClassicAlgPolicyERZN11unwindstack16DwarfSectionImplIjE13BuildFdeIndexEvEUlRKZNS4_13BuildFdeIndexEvE7FdeInfoS7_E_PS5_Lb0EEEvT1_SB_T0_NS_15iterator_traitsISB_E15difference_typeEb
00009882 _ZNSt6__ndk111__introsortINS_17_ClassicAlgPolicyERNS_6__lessIvvEEPNS_4pairImmEELb0EEEvT1_S8_T0_NS_15iterator_traitsIS8_E15difference_typeEb
0000990e _ZNSt6__ndk111__introsortINS_17_ClassicAlgPolicyERZN11unwindstack16DwarfSectionImplImE13BuildFdeIndexEvEUlRKZNS4_13BuildFdeIndexEvE7FdeInfoS7_E_PS5_Lb0EEEvT1_SB_T0_NS_15iterator_traitsISB_E15difference_typeEb
000099df _ZNSt6__ndk16__treeINS_12__value_typeImN11unwindstack14DwarfLocationsEEENS_19__map_value_compareImS4_NS_4lessImEELb1EEENS_9allocatorIS4_EEE13__upper_boundImEENS_15__tree_iteratorIS4_PNS_11__tree_nodeIS4_PvEElEERKT_SH_PNS_15__tree_end_nodeIPNS_16__tree_node_baseISF_EEEE
00009aed _ZNSt6__ndk16__treeINS_12__value_typeImN11unwindstack14DwarfLocationsEEENS_19__map_value_compareImS4_NS_4lessImEELb1EEENS_9allocatorIS4_EEE25__emplace_unique_key_argsImJRmS3_EEENS_4pairINS_15__tree_iteratorIS4_PNS_11__tree_nodeIS4_PvEElEEbEERKT_DpOT0_
00009be9 _ZNSt6__ndk16__treeINS_12__value_typeImN11unwindstack14DwarfLocationsEEENS_19__map_value_compareImS4_NS_4lessImEELb1EEENS_9allocatorIS4_EEE12__find_equalImEERPNS_16__tree_node_baseIPvEERPNS_15__tree_end_nodeISG_EERKT_
00009cc3 _ZNSt6__ndk16__treeINS_12__value_typeImN11unwindstack14DwarfLocationsEEENS_19__map_value_compareImS4_NS_4lessImEELb1EEENS_9allocatorIS4_EEE16__construct_nodeIJRmS3_EEENS_10unique_ptrINS_11__tree_nodeIS4_PvEENS_22__tree_node_destructorINS9_ISH_EEEEEEDpOT_
00009dc2 _ZNSt6__ndk112__hash_tableINS_17__hash_value_typeImN11unwindstack8DwarfCieEEENS_22__unordered_map_hasherImS4_NS_4hashImEENS_8equal_toImEELb1EEENS_21__unordered_map_equalImS4_S9_S7_Lb1EEENS_9allocatorIS4_EEE21__construct_node_hashIRKNS_21piecewise_construct_tEJNS_5tupleIJRKmEEENSK_IJEEEEEENS_10unique_ptrINS_11__hash_nodeIS4_PvEENS_22__hash_node_destructorINSD_ISS_EEEEEEmOT_DpOT0_
00009f40 _ZNSt6__ndk112__hash_tableINS_17__hash_value_typeImN11unwindstack8DwarfCieEEENS_22__unordered_map_hasherImS4_NS_4hashImEENS_8equal_toImEELb1EEENS_21__unordered_map_equalImS4_S9_S7_Lb1EEENS_9allocatorIS4_EEE8__rehashILb1EEEvm
0000a021 _ZNSt6__ndk112__hash_tableINS_17__hash_value_typeImN11unwindstack8DwarfCieEEENS_22__unordered_map_hasherImS4_NS_4hashImEENS_8equal_toImEELb1EEENS_21__unordered_map_equalImS4_S9_S7_Lb1EEENS_9allocatorIS4_EEE11__do_rehashILb1EEEvm
0000a106 _ZNSt6__ndk112__hash_tableINS_17__hash_value_typeImN11unwindstack8DwarfFdeEEENS_22__unordered_map_hasherImS4_NS_4hashImEENS_8equal_toImEELb1EEENS_21__unordered_map_equalImS4_S9_S7_Lb1EEENS_9allocatorIS4_EEE21__construct_node_hashIRKNS_21piecewise_construct_tEJNS_5tupleIJRKmEEENSK_IJEEEEEENS_10unique_ptrINS_11__hash_nodeIS4_PvEENS_22__hash_node_destructorINSD_ISS_EEEEEEmOT_DpOT0_
0000a284 _ZNSt6__ndk112__hash_tableINS_17__hash_value_typeImN11unwindstack8DwarfFdeEEENS_22__unordered_map_hasherImS4_NS_4hashImEENS_8equal_toImEELb1EEENS_21__unordered_map_equalImS4_S9_S7_Lb1EEENS_9allocatorIS4_EEE8__rehashILb1EEEvm
0000a365 _ZNSt6__ndk112__hash_tableINS_17__hash_value_typeImN11unwindstack8DwarfFdeEEENS_22__unordered_map_hasherImS4_NS_4hashImEENS_8equal_toImEELb1EEENS_21__unordered_map_equalImS4_S9_S7_Lb1EEENS_9allocatorIS4_EEE11__do_rehashILb1EEEvm
0000a44a _ZNSt6__ndk112__hash_tableINS_17__hash_value_typeImN11unwindstack14DwarfLocationsEEENS_22__unordered_map_hasherImS4_NS_4hashImEENS_8equal_toImEELb1EEENS_21__unordered_map_equalImS4_S9_S7_Lb1EEENS_9allocatorIS4_EEE21__construct_node_hashIRKNS_21piecewise_construct_tEJNS_5tupleIJRKmEEENSK_IJEEEEEENS_10unique_ptrINS_11__hash_nodeIS4_PvEENS_22__hash_node_destructorINSD_ISS_EEEEEEmOT_DpOT0_
0000a5cf _ZNSt6__ndk112__hash_tableINS_17__hash_value_typeImN11unwindstack14DwarfLocationsEEENS_22__unordered_map_hasherImS4_NS_4hashImEENS_8equal_toImEELb1EEENS_21__unordered_map_equalImS4_S9_S7_Lb1EEENS_9allocatorIS4_EEE8__rehashILb1EEEvm
0000a6b7 _ZNSt6__ndk112__hash_tableINS_17__hash_value_typeImN11unwindstack14DwarfLocationsEEENS_22__unordered_map_hasherImS4_NS_4hashImEENS_8equal_toImEELb1EEENS_21__unordered_map_equalImS4_S9_S7_Lb1EEENS_9allocatorIS4_EEE11__do_rehashILb1EEEvm
0000a7a3 _ZN11unwindstack3Elf17SetCachingEnabledEb
0000a7cd _ZN11unwindstack3Elf14cache_enabled_E
0000a7f3 _ZNSt6__ndk112__hash_tableINS_17__hash_value_typeINS_12basic_stringIcNS_11char_traitsIcEENS_9allocatorIcEEEENS_13unordered_mapImNS_10shared_ptrIN11unwindstack3ElfEEENS_4hashImEENS_8equal_toImEENS5_INS_4pairIKmSC_EEEEEEEENS_22__unordered_map_hasherIS7_SM_NSD_IS7_EENSF_IS7_EELb1EEENS_21__unordered_map_equalIS7_SM_SP_SO_Lb1EEENS5_ISM_EEE25__emplace_unique_key_argsIS7_JRKNS_21piecewise_construct_tENS_5tupleIJOS7_EEENSZ_IJEEEEEENSH_INS_15__hash_iteratorIPNS_11__hash_nodeISM_PvEEEEbEERKT_DpOT0_
0000a9e1 _ZNSt6__ndk112__hash_tableINS_17__hash_value_typeINS_12basic_stringIcNS_11char_traitsIcEENS_9allocatorIcEEEENS_13unordered_mapImNS_10shared_ptrIN11unwindstack3ElfEEENS_4hashImEENS_8equal_toImEENS5_INS_4pairIKmSC_EEEEEEEENS_22__unordered_map_hasherIS7_SM_NSD_IS7_EENSF_IS7_EELb1EEENS_21__unordered_map_equalIS7_SM_SP_SO_Lb1EEENS5_ISM_EEE4findIS7_EENS_15__hash_iteratorIPNS_11__hash_nodeISM_PvEEEERKT_
0000ab71 _ZNSt6__ndk112__hash_tableINS_17__hash_value_typeImNS_10shared_ptrIN11unwindstack3ElfEEEEENS_22__unordered_map_hasherImS6_NS_4hashImEENS_8equal_toImEELb1EEENS_21__unordered_map_equalImS6_SB_S9_Lb1EEENS_9allocatorIS6_EEE4findImEENS_15__hash_iteratorIPNS_11__hash_nodeIS6_PvEEEERKT_
0000ac8a _ZNSt6__ndk112__hash_tableINS_17__hash_value_typeINS_12basic_stringIcNS_11char_traitsIcEENS_9allocatorIcEEEENS_13unordered_mapImNS_10shared_ptrIN11unwindstack3ElfEEENS_4hashImEENS_8equal_toImEENS5_INS_4pairIKmSC_EEEEEEEENS_22__unordered_map_hasherIS7_SM_NSD_IS7_EENSF_IS7_EELb1EEENS_21__unordered_map_equalIS7_SM_SP_SO_Lb1EEENS5_ISM_EEE21__construct_node_hashIRKNS_21piecewise_construct_tEJNS_5tupleIJOS7_EEENSZ_IJEEEEEENS_10unique_ptrINS_11__hash_nodeISM_PvEENS_22__hash_node_destructorINS5_IS16_EEEEEEmOT_DpOT0_
0000ae8c _ZNSt6__ndk112__hash_tableINS_17__hash_value_typeINS_12basic_stringIcNS_11char_traitsIcEENS_9allocatorIcEEEENS_13unordered_mapImNS_10shared_ptrIN11unwindstack3ElfEEENS_4hashImEENS_8equal_toImEENS5_INS_4pairIKmSC_EEEEEEEENS_22__unordered_map_hasherIS7_SM_NSD_IS7_EENSF_IS7_EELb1EEENS_21__unordered_map_equalIS7_SM_SP_SO_Lb1EEENS5_ISM_EEE8__rehashILb1EEEvm
0000afef _ZNSt6__ndk112__hash_tableINS_17__hash_value_typeINS_12basic_stringIcNS_11char_traitsIcEENS_9allocatorIcEEEENS_13unordered_mapImNS_10shared_ptrIN11unwindstack3ElfEEENS_4hashImEENS_8equal_toImEENS5_INS_4pairIKmSC_EEEEEEEENS_22__unordered_map_hasherIS7_SM_NSD_IS7_EENSF_IS7_EELb1EEENS_21__unordered_map_equalIS7_SM_SP_SO_Lb1EEENS5_ISM_EEE11__do_rehashILb1EEEvm
0000b156 _ZNSt6__ndk112__hash_tableINS_17__hash_value_typeImNS_10shared_ptrIN11unwindstack3ElfEEEEENS_22__unordered_map_hasherImS6_NS_4hashImEENS_8equal_toImEELb1EEENS_21__unordered_map_equalImS6_SB_S9_Lb1EEENS_9allocatorIS6_EEE25__emplace_unique_key_argsImJmRS5_EEENS_4pairINS_15__hash_iteratorIPNS_11__hash_nodeIS6_PvEEEEbEERKT_DpOT0_
0000b29e _ZNSt6__ndk112__hash_tableINS_17__hash_value_typeImNS_10shared_ptrIN11unwindstack3ElfEEEEENS_22__unordered_map_hasherImS6_NS_4hashImEENS_8equal_toImEELb1EEENS_21__unordered_map_equalImS6_SB_S9_Lb1EEENS_9allocatorIS6_EEE21__construct_node_hashImJRS5_EEENS_10unique_ptrINS_11__hash_nodeIS6_PvEENS_22__hash_node_destructorINSF_ISN_EEEEEEmOT_DpOT0_
0000b3f7 _ZNSt6__ndk112__hash_tableINS_17__hash_value_typeImNS_10shared_ptrIN11unwindstack3ElfEEEEENS_22__unordered_map_hasherImS6_NS_4hashImEENS_8equal_toImEELb1EEENS_21__unordered_map_equalImS6_SB_S9_Lb1EEENS_9allocatorIS6_EEE8__rehashILb1EEEvm
0000b4e5 _ZNSt6__ndk112__hash_tableINS_17__hash_value_typeImNS_10shared_ptrIN11unwindstack3ElfEEEEENS_22__unordered_map_hasherImS6_NS_4hashImEENS_8equal_toImEELb1EEENS_21__unordered_map_equalImS6_SB_S9_Lb1EEENS_9allocatorIS6_EEE11__do_rehashILb1EEEvm
0000b5d7 _ZNSt6__ndk112basic_stringIcNS_11char_traitsIcEENS_9allocatorIcEEE6__initEmc
0000b624 _ZNSt6__ndk112__hash_tableINS_17__hash_value_typeImN11unwindstack8LoadInfoEEENS_22__unordered_map_hasherImS4_NS_4hashImEENS_8equal_toImEELb1EEENS_21__unordered_map_equalImS4_S9_S7_Lb1EEENS_9allocatorIS4_EEE25__emplace_unique_key_argsImJRKNS_21piecewise_construct_tENS_5tupleIJOmEEENSK_IJEEEEEENS_4pairINS_15__hash_iteratorIPNS_11__hash_nodeIS4_PvEEEEbEERKT_DpOT0_
0000b790 _ZNSt6__ndk112basic_stringIcNS_11char_traitsIcEENS_9allocatorIcEEE6resizeEmc
0000b7dd _ZTVNSt6__ndk120__shared_ptr_emplaceIN11unwindstack8MemoryXzENS_9allocatorIS2_EEEE
0000b830 _ZNSt6__ndk112__hash_tableINS_17__hash_value_typeImN11unwindstack8LoadInfoEEENS_22__unordered_map_hasherImS4_NS_4hashImEENS_8equal_toImEELb1EEENS_21__unordered_map_equalImS4_S9_S7_Lb1EEENS_9allocatorIS4_EEE21__construct_node_hashIRKNS_21piecewise_construct_tEJNS_5tupleIJOmEEENSK_IJEEEEEENS_10unique_ptrINS_11__hash_nodeIS4_PvEENS_22__hash_node_destructorINSD_ISR_EEEEEEmOT_DpOT0_
0000b9ad _ZNSt6__ndk112__hash_tableINS_17__hash_value_typeImN11unwindstack8LoadInfoEEENS_22__unordered_map_hasherImS4_NS_4hashImEENS_8equal_toImEELb1EEENS_21__unordered_map_equalImS4_S9_S7_Lb1EEENS_9allocatorIS4_EEE8__rehashILb1EEEvm
0000ba8e _ZNSt6__ndk112__hash_tableINS_17__hash_value_typeImN11unwindstack8LoadInfoEEENS_22__unordered_map_hasherImS4_NS_4hashImEENS_8equal_toImEELb1EEENS_21__unordered_map_equalImS4_S9_S7_Lb1EEENS_9allocatorIS4_EEE11__do_rehashILb1EEEvm
0000bb73 _ZTINSt6__ndk120__shared_ptr_emplaceIN11unwindstack8MemoryXzENS_9allocatorIS2_EEEE
0000bbc6 _ZNSt6__ndk112__hash_tableINS_17__hash_value_typeImjEENS_22__unordered_map_hasherImS2_NS_4hashImEENS_8equal_toImEELb1EEENS_21__unordered_map_equalImS2_S7_S5_Lb1EEENS_9allocatorIS2_EEE25__emplace_unique_key_argsImJRKNS_21piecewise_construct_tENS_5tupleIJRKmEEENSI_IJEEEEEENS_4pairINS_15__hash_iteratorIPNS_11__hash_nodeIS2_PvEEEEbEERKT_DpOT0_
0000bd1c _ZNSt6__ndk112__hash_tableINS_17__hash_value_typeImjEENS_22__unordered_map_hasherImS2_NS_4hashImEENS_8equal_toImEELb1EEENS_21__unordered_map_equalImS2_S7_S5_Lb1EEENS_9allocatorIS2_EEE21__construct_node_hashIRKNS_21piecewise_construct_tEJNS_5tupleIJRKmEEENSI_IJEEEEEENS_10unique_ptrINS_11__hash_nodeIS2_PvEENS_22__hash_node_destructorINSB_ISQ_EEEEEEmOT_DpOT0_
0000be83 _ZNSt6__ndk112__hash_tableINS_17__hash_value_typeImjEENS_22__unordered_map_hasherImS2_NS_4hashImEENS_8equal_toImEELb1EEENS_21__unordered_map_equalImS2_S7_S5_Lb1EEENS_9allocatorIS2_EEE8__rehashILb1EEEvm
0000bf4d _ZNSt6__ndk112__hash_tableINS_17__hash_value_typeImjEENS_22__unordered_map_hasherImS2_NS_4hashImEENS_8equal_toImEELb1EEENS_21__unordered_map_equalImS2_S7_S5_Lb1EEENS_9allocatorIS2_EEE11__do_rehashILb1EEEvm
0000c01b _ZTINSt6__ndk110__function6__baseIFbPN11unwindstack7MapInfoEEEE
0000c05b _ZTVNSt6__ndk120__shared_ptr_pointerIPN11unwindstack12MemoryBufferENS_10shared_ptrINS1_6MemoryEE27__shared_ptr_default_deleteIS5_S2_EENS_9allocatorIS2_EEEE
0000c0f7 _ZTVNSt6__ndk120__shared_ptr_pointerIPN11unwindstack3ElfENS_10shared_ptrIS2_E27__shared_ptr_default_deleteIS2_S2_EENS_9allocatorIS2_EEEE
0000c180 _ZTINSt6__ndk110shared_ptrIN11unwindstack3ElfEE27__shared_ptr_default_deleteIS2_S2_EE
0000c1d6 _ZTINSt6__ndk110shared_ptrIN11unwindstack6MemoryEE27__shared_ptr_default_deleteIS2_NS1_12MemoryBufferEEE
0000c23f _ZNSt6__ndk16__treeINS_12__value_typeIN11unwindstack15GlobalDebugImplINS2_3ElfEjNS2_8Uint64_PEE3UIDENS_10shared_ptrIS4_EEEENS_19__map_value_compareIS7_SA_NS_4lessIS7_EELb1EEENS_9allocatorISA_EEE4findIS7_EENS_15__tree_iteratorISA_PNS_11__tree_nodeISA_PvEElEERKT_
0000c345 _ZNKSt6__ndk16__treeINS_12__value_typeIN11unwindstack15GlobalDebugImplINS2_3ElfEjNS2_8Uint64_PEE3UIDENS_10shared_ptrIS4_EEEENS_19__map_value_compareIS7_SA_NS_4lessIS7_EELb1EEENS_9allocatorISA_EEE4findIS7_EENS_21__tree_const_iteratorISA_PNS_11__tree_nodeISA_PvEElEERKT_
0000c452 _ZNKSt6__ndk16__treeINS_12__value_typeIN11unwindstack15GlobalDebugImplINS2_3ElfEjNS2_8Uint64_PEE3UIDENS_10shared_ptrIS4_EEEENS_19__map_value_compareIS7_SA_NS_4lessIS7_EELb1EEENS_9allocatorISA_EEE13__lower_boundIS7_EENS_21__tree_const_iteratorISA_PNS_11__tree_nodeISA_PvEElEERKT_SN_PNS_15__tree_end_nodeIPNS_16__tree_node_baseISL_EEEE
0000c5a0 _ZNSt6__ndk16__treeINS_12__value_typeIN11unwindstack15GlobalDebugImplINS2_3ElfEjNS2_8Uint64_PEE3UIDENS_10shared_ptrIS4_EEEENS_19__map_value_compareIS7_SA_NS_4lessIS7_EELb1EEENS_9allocatorISA_EEE13__lower_boundIS7_EENS_15__tree_iteratorISA_PNS_11__tree_nodeISA_PvEElEERKT_SN_PNS_15__tree_end_nodeIPNS_16__tree_node_baseISL_EEEE
0000c6e7 _ZNSt6__ndk16__treeINS_12__value_typeIN11unwindstack15GlobalDebugImplINS2_3ElfEjNS2_8Uint64_PEE3UIDENS_10shared_ptrIS4_EEEENS_19__map_value_compareIS7_SA_NS_4lessIS7_EELb1EEENS_9allocatorISA_EEE25__emplace_unique_key_argsIS7_JRS7_RS9_EEENS_4pairINS_15__tree_iteratorISA_PNS_11__tree_nodeISA_PvEElEEbEERKT_DpOT0_
0000c81f _ZNSt6__ndk16__treeINS_12__value_typeIN11unwindstack15GlobalDebugImplINS2_3ElfEjNS2_8Uint64_PEE3UIDENS_10shared_ptrIS4_EEEENS_19__map_value_compareIS7_SA_NS_4lessIS7_EELb1EEENS_9allocatorISA_EEE12__find_equalIS7_EERPNS_16__tree_node_baseIPvEERPNS_15__tree_end_nodeISM_EERKT_
0000c932 _ZNSt6__ndk16__treeINS_12__value_typeIN11unwindstack15GlobalDebugImplINS2_3ElfEjNS2_8Uint64_PEE3UIDENS_10shared_ptrIS4_EEEENS_19__map_value_compareIS7_SA_NS_4lessIS7_EELb1EEENS_9allocatorISA_EEE16__construct_nodeIJRS7_RS9_EEENS_10unique_ptrINS_11__tree_nodeISA_PvEENS_22__tree_node_destructorINSF_ISO_EEEEEEDpOT_
0000ca6b _ZNSt6__ndk16__treeINS_12__value_typeIN11unwindstack15GlobalDebugImplINS2_3ElfEjNS2_8Uint64_AEE3UIDENS_10shared_ptrIS4_EEEENS_19__map_value_compareIS7_SA_NS_4lessIS7_EELb1EEENS_9allocatorISA_EEE4findIS7_EENS_15__tree_iteratorISA_PNS_11__tree_nodeISA_PvEElEERKT_
0000cb71 _ZNKSt6__ndk16__treeINS_12__value_typeIN11unwindstack15GlobalDebugImplINS2_3ElfEjNS2_8Uint64_AEE3UIDENS_10shared_ptrIS4_EEEENS_19__map_value_compareIS7_SA_NS_4lessIS7_EELb1EEENS_9allocatorISA_EEE4findIS7_EENS_21__tree_const_iteratorISA_PNS_11__tree_nodeISA_PvEElEERKT_
0000cc7e _ZNKSt6__ndk16__treeINS_12__value_typeIN11unwindstack15GlobalDebugImplINS2_3ElfEjNS2_8Uint64_AEE3UIDENS_10shared_ptrIS4_EEEENS_19__map_value_compareIS7_SA_NS_4lessIS7_EELb1EEENS_9allocatorISA_EEE13__lower_boundIS7_EENS_21__tree_const_iteratorISA_PNS_11__tree_nodeISA_PvEElEERKT_SN_PNS_15__tree_end_nodeIPNS_16__tree_node_baseISL_EEEE
0000cdcc _ZNSt6__ndk16__treeINS_12__value_typeIN11unwindstack15GlobalDebugImplINS2_3ElfEjNS2_8Uint64_AEE3UIDENS_10shared_ptrIS4_EEEENS_19__map_value_compareIS7_SA_NS_4lessIS7_EELb1EEENS_9allocatorISA_EEE13__lower_boundIS7_EENS_15__tree_iteratorISA_PNS_11__tree_nodeISA_PvEElEERKT_SN_PNS_15__tree_end_nodeIPNS_16__tree_node_baseISL_EEEE
0000cf13 _ZNSt6__ndk16__treeINS_12__value_typeIN11unwindstack15GlobalDebugImplINS2_3ElfEjNS2_8Uint64_AEE3UIDENS_10shared_ptrIS4_EEEENS_19__map_value_compareIS7_SA_NS_4lessIS7_EELb1EEENS_9allocatorISA_EEE25__emplace_unique_key_argsIS7_JRS7_RS9_EEENS_4pairINS_15__tree_iteratorISA_PNS_11__tree_nodeISA_PvEElEEbEERKT_DpOT0_
0000d04b _ZNSt6__ndk16__treeINS_12__value_typeIN11unwindstack15GlobalDebugImplINS2_3ElfEjNS2_8Uint64_AEE3UIDENS_10shared_ptrIS4_EEEENS_19__map_value_compareIS7_SA_NS_4lessIS7_EELb1EEENS_9allocatorISA_EEE12__find_equalIS7_EERPNS_16__tree_node_baseIPvEERPNS_15__tree_end_nodeISM_EERKT_
0000d15e _ZNSt6__ndk16__treeINS_12__value_typeIN11unwindstack15GlobalDebugImplINS2_3ElfEjNS2_8Uint64_AEE3UIDENS_10shared_ptrIS4_EEEENS_19__map_value_compareIS7_SA_NS_4lessIS7_EELb1EEENS_9allocatorISA_EEE16__construct_nodeIJRS7_RS9_EEENS_10unique_ptrINS_11__tree_nodeISA_PvEENS_22__tree_node_destructorINSF_ISO_EEEEEEDpOT_
0000d297 _ZNSt6__ndk16__treeINS_12__value_typeIN11unwindstack15GlobalDebugImplINS2_3ElfEmNS2_8Uint64_AEE3UIDENS_10shared_ptrIS4_EEEENS_19__map_value_compareIS7_SA_NS_4lessIS7_EELb1EEENS_9allocatorISA_EEE4findIS7_EENS_15__tree_iteratorISA_PNS_11__tree_nodeISA_PvEElEERKT_
0000d39d _ZNKSt6__ndk16__treeINS_12__value_typeIN11unwindstack15GlobalDebugImplINS2_3ElfEmNS2_8Uint64_AEE3UIDENS_10shared_ptrIS4_EEEENS_19__map_value_compareIS7_SA_NS_4lessIS7_EELb1EEENS_9allocatorISA_EEE4findIS7_EENS_21__tree_const_iteratorISA_PNS_11__tree_nodeISA_PvEElEERKT_
0000d4aa _ZNKSt6__ndk16__treeINS_12__value_typeIN11unwindstack15GlobalDebugImplINS2_3ElfEmNS2_8Uint64_AEE3UIDENS_10shared_ptrIS4_EEEENS_19__map_value_compareIS7_SA_NS_4lessIS7_EELb1EEENS_9allocatorISA_EEE13__lower_boundIS7_EENS_21__tree_const_iteratorISA_PNS_11__tree_nodeISA_PvEElEERKT_SN_PNS_15__tree_end_nodeIPNS_16__tree_node_baseISL_EEEE
0000d5f8 _ZNSt6__ndk16__treeINS_12__value_typeIN11unwindstack15GlobalDebugImplINS2_3ElfEmNS2_8Uint64_AEE3UIDENS_10shared_ptrIS4_EEEENS_19__map_value_compareIS7_SA_NS_4lessIS7_EELb1EEENS_9allocatorISA_EEE13__lower_boundIS7_EENS_15__tree_iteratorISA_PNS_11__tree_nodeISA_PvEElEERKT_SN_PNS_15__tree_end_nodeIPNS_16__tree_node_baseISL_EEEE
0000d73f _ZNSt6__ndk16__treeINS_12__value_typeIN11unwindstack15GlobalDebugImplINS2_3ElfEmNS2_8Uint64_AEE3UIDENS_10shared_ptrIS4_EEEENS_19__map_value_compareIS7_SA_NS_4lessIS7_EELb1EEENS_9allocatorISA_EEE25__emplace_unique_key_argsIS7_JRS7_RS9_EEENS_4pairINS_15__tree_iteratorISA_PNS_11__tree_nodeISA_PvEElEEbEERKT_DpOT0_
0000d877 _ZNSt6__ndk16__treeINS_12__value_typeIN11unwindstack15GlobalDebugImplINS2_3ElfEmNS2_8Uint64_AEE3UIDENS_10shared_ptrIS4_EEEENS_19__map_value_compareIS7_SA_NS_4lessIS7_EELb1EEENS_9allocatorISA_EEE12__find_equalIS7_EERPNS_16__tree_node_baseIPvEERPNS_15__tree_end_nodeISM_EERKT_
0000d98a _ZNSt6__ndk16__treeINS_12__value_typeIN11unwindstack15GlobalDebugImplINS2_3ElfEmNS2_8Uint64_AEE3UIDENS_10shared_ptrIS4_EEEENS_19__map_value_compareIS7_SA_NS_4lessIS7_EELb1EEENS_9allocatorISA_EEE16__construct_nodeIJRS7_RS9_EEENS_10unique_ptrINS_11__tree_nodeISA_PvEENS_22__tree_node_destructorINSF_ISO_EEEEEEDpOT_
0000dac3 _ZTINSt6__ndk120__shared_ptr_pointerIPN11unwindstack3ElfENS_10shared_ptrIS2_E27__shared_ptr_default_deleteIS2_S2_EENS_9allocatorIS2_EEEE
0000db4c _ZTINSt6__ndk114default_deleteIN11unwindstack3ElfEEE
0000db81 _ZTINSt6__ndk120__shared_ptr_pointerIPN11unwindstack12MemoryBufferENS_10shared_ptrINS1_6MemoryEE27__shared_ptr_default_deleteIS5_S2_EENS_9allocatorIS2_EEEE
0000dc1d vprintf
0000dc25 _ZTVNSt6__ndk120__shared_ptr_pointerIPN11unwindstack11MemoryRangeENS_10shared_ptrINS1_6MemoryEE27__shared_ptr_default_deleteIS5_S2_EENS_9allocatorIS2_EEEE
0000dcc0 _ZTVNSt6__ndk120__shared_ptr_pointerIPN11unwindstack12MemoryRangesENS_10shared_ptrINS1_6MemoryEE27__shared_ptr_default_deleteIS5_S2_EENS_9allocatorIS2_EEEE
0000dd5c _ZN11unwindstack7MapInfo11GetFullNameEv
0000dd84 _ZN11unwindstack7MapInfo10GetBuildIDEv
0000ddab _ZN11unwindstack7MapInfo19GetPrintableBuildIDEv
0000dddb _ZTVNSt6__ndk120__shared_ptr_emplaceIN11unwindstack18MemoryFileAtOffsetENS_9allocatorIS2_EEEE
0000de39 _ZTINSt6__ndk110shared_ptrIN11unwindstack6MemoryEE27__shared_ptr_default_deleteIS2_NS1_11MemoryRangeEEE
0000dea1 _ZTINSt6__ndk110shared_ptrIN11unwindstack6MemoryEE27__shared_ptr_default_deleteIS2_NS1_12MemoryRangesEEE
0000df0a _ZTINSt6__ndk120__shared_ptr_emplaceIN11unwindstack18MemoryFileAtOffsetENS_9allocatorIS2_EEEE
0000df68 _ZTINSt6__ndk120__shared_ptr_pointerIPN11unwindstack11MemoryRangeENS_10shared_ptrINS1_6MemoryEE27__shared_ptr_default_deleteIS5_S2_EENS_9allocatorIS2_EEEE
0000e003 _ZTINSt6__ndk114default_deleteIN11unwindstack11MemoryRangeEEE
0000e041 _ZTINSt6__ndk120__shared_ptr_pointerIPN11unwindstack12MemoryRangesENS_10shared_ptrINS1_6MemoryEE27__shared_ptr_default_deleteIS5_S2_EENS_9allocatorIS2_EEEE
0000e0dd _ZTINSt6__ndk114default_deleteIN11unwindstack12MemoryRangesEEE
0000e11c strtoull
0000e125 pthread_rwlock_init
0000e139 pthread_rwlock_rdlock
0000e14f pthread_rwlock_unlock
0000e165 pthread_rwlock_wrlock
0000e17b _ZTVNSt6__ndk120__shared_ptr_emplaceIN11unwindstack7MapInfoENS_9allocatorIS2_EEEE
0000e1cd strncmp
0000e1d5 _ZTINSt6__ndk120__shared_ptr_emplaceIN11unwindstack7MapInfoENS_9allocatorIS2_EEEE
0000e227 _ZTINSt6__ndk110__function6__baseIFvRKN7android8procinfo7MapInfoEEEE
0000e26c strnlen
0000e274 _ZNSt6__ndk112basic_stringIcNS_11char_traitsIcEENS_9allocatorIcEEE6assignEmc
0000e2c1 _ZNSt6__ndk112basic_stringIcNS_11char_traitsIcEENS_9allocatorIcEEE6assignEPKcm
0000e310 getpagesize
0000e31c _ZTVNSt6__ndk120__shared_ptr_pointerIPN11unwindstack11MemoryLocalENS_10shared_ptrINS1_6MemoryEE27__shared_ptr_default_deleteIS5_S2_EENS_9allocatorIS2_EEEE
0000e3b7 _ZTVNSt6__ndk120__shared_ptr_pointerIPN11unwindstack12MemoryRemoteENS_10shared_ptrINS1_6MemoryEE27__shared_ptr_default_deleteIS5_S2_EENS_9allocatorIS2_EEEE
0000e453 _ZTVNSt6__ndk120__shared_ptr_pointerIPN11unwindstack11MemoryCacheENS_10shared_ptrINS1_6MemoryEE27__shared_ptr_default_deleteIS5_S2_EENS_9allocatorIS2_EEEE
0000e4ee _ZTVNSt6__ndk120__shared_ptr_pointerIPN11unwindstack17MemoryThreadCacheENS_10shared_ptrINS1_6MemoryEE27__shared_ptr_default_deleteIS5_S2_EENS_9allocatorIS2_EEEE
0000e58f _ZTVNSt6__ndk120__shared_ptr_pointerIPN11unwindstack19MemoryOfflineBufferENS_10shared_ptrINS1_6MemoryEE27__shared_ptr_default_deleteIS5_S2_EENS_9allocatorIS2_EEEE
0000e632 syscall
0000e63a _ZNSt6__ndk16__treeINS_12__value_typeImNS_10unique_ptrIN11unwindstack11MemoryRangeENS_14default_deleteIS4_EEEEEENS_19__map_value_compareImS8_NS_4lessImEELb1EEENS_9allocatorIS8_EEE25__emplace_unique_key_argsImJRKNS_21piecewise_construct_tENS_5tupleIJRKmEEENSK_IJRPS4_EEEEEENS_4pairINS_15__tree_iteratorIS8_PNS_11__tree_nodeIS8_PvEElEEbEERKT_DpOT0_
0000e795 _ZNSt6__ndk112__hash_tableINS_17__hash_value_typeImA4096_hEENS_22__unordered_map_hasherImS3_NS_4hashImEENS_8equal_toImEELb1EEENS_21__unordered_map_equalImS3_S8_S6_Lb1EEENS_9allocatorIS3_EEE4findImEENS_15__hash_iteratorIPNS_11__hash_nodeIS3_PvEEEERKT_
0000e890 _ZNSt6__ndk112__hash_tableINS_17__hash_value_typeImA4096_hEENS_22__unordered_map_hasherImS3_NS_4hashImEENS_8equal_toImEELb1EEENS_21__unordered_map_equalImS3_S8_S6_Lb1EEENS_9allocatorIS3_EEE14__erase_uniqueImEEmRKT_
0000e967 _ZNSt6__ndk112__hash_tableINS_17__hash_value_typeImA4096_hEENS_22__unordered_map_hasherImS3_NS_4hashImEENS_8equal_toImEELb1EEENS_21__unordered_map_equalImS3_S8_S6_Lb1EEENS_9allocatorIS3_EEE25__emplace_unique_key_argsImJRKNS_21piecewise_construct_tENS_5tupleIJRKmEEENSJ_IJEEEEEENS_4pairINS_15__hash_iteratorIPNS_11__hash_nodeIS3_PvEEEEbEERKT_DpOT0_
0000eac3 pthread_key_create
0000ead6 pthread_getspecific
0000eaea pthread_key_delete
0000eafd pthread_setspecific
0000eb11 ptrace
0000eb18 _ZTVNSt6__ndk120__shared_ptr_pointerIPN11unwindstack6MemoryENS_10shared_ptrIS2_E27__shared_ptr_default_deleteIS2_S2_EENS_9allocatorIS2_EEEE
0000eba4 _ZTINSt6__ndk110shared_ptrIN11unwindstack6MemoryEE27__shared_ptr_default_deleteIS2_S2_EE
0000ebfd _ZTINSt6__ndk110shared_ptrIN11unwindstack6MemoryEE27__shared_ptr_default_deleteIS2_NS1_11MemoryLocalEEE
0000ec65 _ZTINSt6__ndk110shared_ptrIN11unwindstack6MemoryEE27__shared_ptr_default_deleteIS2_NS1_12MemoryRemoteEEE
0000ecce _ZTINSt6__ndk110shared_ptrIN11unwindstack6MemoryEE27__shared_ptr_default_deleteIS2_NS1_11MemoryCacheEEE
0000ed36 _ZTINSt6__ndk110shared_ptrIN11unwindstack6MemoryEE27__shared_ptr_default_deleteIS2_NS1_17MemoryThreadCacheEEE
0000eda4 _ZTINSt6__ndk110shared_ptrIN11unwindstack6MemoryEE27__shared_ptr_default_deleteIS2_NS1_19MemoryOfflineBufferEEE
0000ee14 _ZNSt6__ndk16__treeINS_12__value_typeImNS_10unique_ptrIN11unwindstack11MemoryRangeENS_14default_deleteIS4_EEEEEENS_19__map_value_compareImS8_NS_4lessImEELb1EEENS_9allocatorIS8_EEE12__find_equalImEERPNS_16__tree_node_baseIPvEERPNS_15__tree_end_nodeISK_EERKT_
0000ef16 _ZNSt6__ndk16__treeINS_12__value_typeImNS_10unique_ptrIN11unwindstack11MemoryRangeENS_14default_deleteIS4_EEEEEENS_19__map_value_compareImS8_NS_4lessImEELb1EEENS_9allocatorIS8_EEE16__construct_nodeIJRKNS_21piecewise_construct_tENS_5tupleIJRKmEEENSK_IJRPS4_EEEEEENS2_INS_11__tree_nodeIS8_PvEENS_22__tree_node_destructorINSD_IST_EEEEEEDpOT_
0000f069 _ZNSt6__ndk16__treeINS_12__value_typeImNS_10unique_ptrIN11unwindstack11MemoryRangeENS_14default_deleteIS4_EEEEEENS_19__map_value_compareImS8_NS_4lessImEELb1EEENS_9allocatorIS8_EEE13__upper_boundImEENS_15__tree_iteratorIS8_PNS_11__tree_nodeIS8_PvEElEERKT_SL_PNS_15__tree_end_nodeIPNS_16__tree_node_baseISJ_EEEE
0000f19f _ZNSt6__ndk112__hash_tableINS_17__hash_value_typeImA4096_hEENS_22__unordered_map_hasherImS3_NS_4hashImEENS_8equal_toImEELb1EEENS_21__unordered_map_equalImS3_S8_S6_Lb1EEENS_9allocatorIS3_EEE21__construct_node_hashIRKNS_21piecewise_construct_tEJNS_5tupleIJRKmEEENSJ_IJEEEEEENS_10unique_ptrINS_11__hash_nodeIS3_PvEENS_22__hash_node_destructorINSC_ISR_EEEEEEmOT_DpOT0_
0000f30c _ZNSt6__ndk112__hash_tableINS_17__hash_value_typeImA4096_hEENS_22__unordered_map_hasherImS3_NS_4hashImEENS_8equal_toImEELb1EEENS_21__unordered_map_equalImS3_S8_S6_Lb1EEENS_9allocatorIS3_EEE8__rehashILb1EEEvm
0000f3dc _ZNSt6__ndk112__hash_tableINS_17__hash_value_typeImA4096_hEENS_22__unordered_map_hasherImS3_NS_4hashImEENS_8equal_toImEELb1EEENS_21__unordered_map_equalImS3_S8_S6_Lb1EEENS_9allocatorIS3_EEE11__do_rehashILb1EEEvm
0000f4b0 _ZTINSt6__ndk120__shared_ptr_pointerIPN11unwindstack6MemoryENS_10shared_ptrIS2_E27__shared_ptr_default_deleteIS2_S2_EENS_9allocatorIS2_EEEE
0000f53c _ZTINSt6__ndk114default_deleteIN11unwindstack6MemoryEEE
0000f574 _ZTINSt6__ndk120__shared_ptr_pointerIPN11unwindstack11MemoryLocalENS_10shared_ptrINS1_6MemoryEE27__shared_ptr_default_deleteIS5_S2_EENS_9allocatorIS2_EEEE
0000f60f _ZTINSt6__ndk114default_deleteIN11unwindstack11MemoryLocalEEE
0000f64d _ZTINSt6__ndk120__shared_ptr_pointerIPN11unwindstack12MemoryRemoteENS_10shared_ptrINS1_6MemoryEE27__shared_ptr_default_deleteIS5_S2_EENS_9allocatorIS2_EEEE
0000f6e9 _ZTINSt6__ndk114default_deleteIN11unwindstack12MemoryRemoteEEE
0000f728 _ZTINSt6__ndk120__shared_ptr_pointerIPN11unwindstack11MemoryCacheENS_10shared_ptrINS1_6MemoryEE27__shared_ptr_default_deleteIS5_S2_EENS_9allocatorIS2_EEEE
0000f7c3 _ZTINSt6__ndk114default_deleteIN11unwindstack11MemoryCacheEEE
0000f801 _ZTINSt6__ndk120__shared_ptr_pointerIPN11unwindstack17MemoryThreadCacheENS_10shared_ptrINS1_6MemoryEE27__shared_ptr_default_deleteIS5_S2_EENS_9allocatorIS2_EEEE
0000f8a2 _ZTINSt6__ndk114default_deleteIN11unwindstack17MemoryThreadCacheEEE
0000f8e6 _ZTINSt6__ndk120__shared_ptr_pointerIPN11unwindstack19MemoryOfflineBufferENS_10shared_ptrINS1_6MemoryEE27__shared_ptr_default_deleteIS5_S2_EENS_9allocatorIS2_EEEE
0000f989 _ZTINSt6__ndk114default_deleteIN11unwindstack19MemoryOfflineBufferEEE
0000f9cf _ZNSt6__ndk112__hash_tableINS_17__hash_value_typeINS_12basic_stringIcNS_11char_traitsIcEENS_9allocatorIcEEEENS_8optionalImEEEENS_22__unordered_map_hasherIS7_SA_NS_4hashIS7_EENS_8equal_toIS7_EELb1EEENS_21__unordered_map_equalIS7_SA_SF_SD_Lb1EEENS5_ISA_EEE4findIS7_EENS_15__hash_iteratorIPNS_11__hash_nodeISA_PvEEEERKT_
0000fb0d _ZNSt6__ndk16__treeINS_12__value_typeImN11unwindstack7Symbols4InfoEEENS_19__map_value_compareImS5_NS_4lessImEELb1EEENS_9allocatorIS5_EEE25__emplace_unique_key_argsImJRKNS_21piecewise_construct_tENS_5tupleIJOmEEENSH_IJEEEEEENS_4pairINS_15__tree_iteratorIS5_PNS_11__tree_nodeIS5_PvEElEEbEERKT_DpOT0_
0000fc37 _ZNSt6__ndk16__treeINS_12__value_typeImN11unwindstack7Symbols4InfoEEENS_19__map_value_compareImS5_NS_4lessImEELb1EEENS_9allocatorIS5_EEE13__upper_boundImEENS_15__tree_iteratorIS5_PNS_11__tree_nodeIS5_PvEElEERKT_SI_PNS_15__tree_end_nodeIPNS_16__tree_node_baseISG_EEEE
0000fd42 _ZNSt6__ndk16__treeINS_12__value_typeImN11unwindstack7Symbols4InfoEEENS_19__map_value_compareImS5_NS_4lessImEELb1EEENS_9allocatorIS5_EEE12__find_equalImEERPNS_16__tree_node_baseIPvEERPNS_15__tree_end_nodeISH_EERKT_
0000fe19 _ZNSt6__ndk111__introsortINS_17_ClassicAlgPolicyERZN11unwindstack7Symbols15BuildRemapTableI9elf32_symEEvPNS2_6MemoryEEUlT_T0_E_PjLb0EEEvT1_SD_S9_NS_15iterator_traitsISD_E15difference_typeEb
0000fed7 _ZNSt6__ndk111__introsortINS_17_ClassicAlgPolicyERZN11unwindstack7Symbols15BuildRemapTableI9elf64_symEEvPNS2_6MemoryEEUlT_T0_E_PjLb0EEEvT1_SD_S9_NS_15iterator_traitsISD_E15difference_typeEb
0000ff95 _ZNSt6__ndk112__hash_tableINS_17__hash_value_typeINS_12basic_stringIcNS_11char_traitsIcEENS_9allocatorIcEEEENS_8optionalImEEEENS_22__unordered_map_hasherIS7_SA_NS_4hashIS7_EENS_8equal_toIS7_EELb1EEENS_21__unordered_map_equalIS7_SA_SF_SD_Lb1EEENS5_ISA_EEE25__emplace_unique_key_argsIS7_JRKS7_RjEEENS_4pairINS_15__hash_iteratorIPNS_11__hash_nodeISA_PvEEEEbEERKT_DpOT0_
00010104 _ZNSt6__ndk112__hash_tableINS_17__hash_value_typeINS_12basic_stringIcNS_11char_traitsIcEENS_9allocatorIcEEEENS_8optionalImEEEENS_22__unordered_map_hasherIS7_SA_NS_4hashIS7_EENS_8equal_toIS7_EELb1EEENS_21__unordered_map_equalIS7_SA_SF_SD_Lb1EEENS5_ISA_EEE21__construct_node_hashIRKS7_JRjEEENS_10unique_ptrINS_11__hash_nodeISA_PvEENS_22__hash_node_destructorINS5_ISS_EEEEEEmOT_DpOT0_
00010282 _ZNSt6__ndk112__hash_tableINS_17__hash_value_typeINS_12basic_stringIcNS_11char_traitsIcEENS_9allocatorIcEEEENS_8optionalImEEEENS_22__unordered_map_hasherIS7_SA_NS_4hashIS7_EENS_8equal_toIS7_EELb1EEENS_21__unordered_map_equalIS7_SA_SF_SD_Lb1EEENS5_ISA_EEE8__rehashILb1EEEvm
00010393 _ZNSt6__ndk112__hash_tableINS_17__hash_value_typeINS_12basic_stringIcNS_11char_traitsIcEENS_9allocatorIcEEEENS_8optionalImEEEENS_22__unordered_map_hasherIS7_SA_NS_4hashIS7_EENS_8equal_toIS7_EELb1EEENS_21__unordered_map_equalIS7_SA_SF_SD_Lb1EEENS5_ISA_EEE11__do_rehashILb1EEEvm
000104a8 _ZNSt6__ndk112__hash_tableINS_17__hash_value_typeINS_12basic_stringIcNS_11char_traitsIcEENS_9allocatorIcEEEENS_8optionalImEEEENS_22__unordered_map_hasherIS7_SA_NS_4hashIS7_EENS_8equal_toIS7_EELb1EEENS_21__unordered_map_equalIS7_SA_SF_SD_Lb1EEENS5_ISA_EEE25__emplace_unique_key_argsIS7_JRKS7_S9_EEENS_4pairINS_15__hash_iteratorIPNS_11__hash_nodeISA_PvEEEEbEERKT_DpOT0_
00010618 _ZNSt6__ndk112__hash_tableINS_17__hash_value_typeINS_12basic_stringIcNS_11char_traitsIcEENS_9allocatorIcEEEENS_8optionalImEEEENS_22__unordered_map_hasherIS7_SA_NS_4hashIS7_EENS_8equal_toIS7_EELb1EEENS_21__unordered_map_equalIS7_SA_SF_SD_Lb1EEENS5_ISA_EEE21__construct_node_hashIRKS7_JS9_EEENS_10unique_ptrINS_11__hash_nodeISA_PvEENS_22__hash_node_destructorINS5_ISR_EEEEEEmOT_DpOT0_
00010797 _ZNSt6__ndk112__hash_tableINS_17__hash_value_typeINS_12basic_stringIcNS_11char_traitsIcEENS_9allocatorIcEEEENS_8optionalImEEEENS_22__unordered_map_hasherIS7_SA_NS_4hashIS7_EENS_8equal_toIS7_EELb1EEENS_21__unordered_map_equalIS7_SA_SF_SD_Lb1EEENS5_ISA_EEE25__emplace_unique_key_argsIS7_JRKS7_RyEEENS_4pairINS_15__hash_iteratorIPNS_11__hash_nodeISA_PvEEEEbEERKT_DpOT0_
00010906 _ZNSt6__ndk112__hash_tableINS_17__hash_value_typeINS_12basic_stringIcNS_11char_traitsIcEENS_9allocatorIcEEEENS_8optionalImEEEENS_22__unordered_map_hasherIS7_SA_NS_4hashIS7_EENS_8equal_toIS7_EELb1EEENS_21__unordered_map_equalIS7_SA_SF_SD_Lb1EEENS5_ISA_EEE21__construct_node_hashIRKS7_JRyEEENS_10unique_ptrINS_11__hash_nodeISA_PvEENS_22__hash_node_destructorINS5_ISS_EEEEEEmOT_DpOT0_
00010a84 _ZNSt6__ndk118condition_variableD1Ev
00010aa9 _ZNSt6__ndk16__treeINS_12__value_typeIiPN11unwindstack11ThreadEntryEEENS_19__map_value_compareIiS5_NS_4lessIiEELb1EEENS_9allocatorIS5_EEE25__emplace_unique_key_argsIiJRKNS_21piecewise_construct_tENS_5tupleIJRKiEEENSH_IJEEEEEENS_4pairINS_15__tree_iteratorIS5_PNS_11__tree_nodeIS5_PvEElEEbEERKT_DpOT0_
00010bd5 _ZNSt6__ndk16__treeINS_12__value_typeIiPN11unwindstack11ThreadEntryEEENS_19__map_value_compareIiS5_NS_4lessIiEELb1EEENS_9allocatorIS5_EEE4findIiEENS_15__tree_iteratorIS5_PNS_11__tree_nodeIS5_PvEElEERKT_
00010ca0 _ZNSt6__ndk16chrono12steady_clock3nowEv
00010cc8 _ZNSt6__ndk118condition_variable10notify_oneEv
00010cf7 _ZNSt6__ndk16__treeINS_12__value_typeIiPN11unwindstack11ThreadEntryEEENS_19__map_value_compareIiS5_NS_4lessIiEELb1EEENS_9allocatorIS5_EEE12__find_equalIiEERPNS_16__tree_node_baseIPvEERPNS_15__tree_end_nodeISH_EERKT_
00010dcf _ZNSt6__ndk16__treeINS_12__value_typeIiPN11unwindstack11ThreadEntryEEENS_19__map_value_compareIiS5_NS_4lessIiEELb1EEENS_9allocatorIS5_EEE13__lower_boundIiEENS_15__tree_iteratorIS5_PNS_11__tree_nodeIS5_PvEElEERKT_SI_PNS_15__tree_end_nodeIPNS_16__tree_node_baseISG_EEEE
00010edb pthread_cond_clockwait
00010ef2 _ZNSt6__ndk120__throw_system_errorEiPKc
00010f1a sigemptyset
00010f26 sigaction
00010f30 tgkill
00010f37 _ZN11unwindstack15UnwinderFromPid6UnwindEPKNSt6__ndk16vectorINS1_12basic_stringIcNS1_11char_traitsIcEENS1_9allocatorIcEEEENS6_IS8_EEEESC_
00010fc1 _ZNKSt6__ndk112basic_stringIcNS_11char_traitsIcEENS_9allocatorIcEEE5rfindEcm
0001100e __wrap__ZTVSt19bad_optional_access
00011031 __wrap__ZTISt12out_of_range
0001104d __wrap__ZTISt12length_error
00011069 __wrap___cxa_begin_catch
00011082 __wrap__ZTVN10__cxxabiv120__si_class_type_infoE
000110b2 __wrap__ZnamRKSt9nothrow_t
000110cd __wrap__ZTVN10__cxxabiv117__class_type_infoE
000110fa __wrap___cxa_allocate_exception
0001111a __wrap___cxa_guard_release
00011135 __wrap__ZdlPv
00011143 __wrap__ZTVN10__cxxabiv120__function_type_infoE
00011173 __wrap__ZTVN10__cxxabiv119__pointer_type_infoE
000111a2 __wrap__ZTISt19bad_optional_access
000111c5 __wrap__ZdaPv
000111d3 __wrap__ZNSt12out_of_rangeD1Ev
000111f2 __wrap___cxa_guard_abort
0001120b __wrap__ZNSt20bad_array_new_lengthD1Ev
00011232 __wrap___cxa_end_catch
00011249 __wrap___cxa_pure_virtual
00011263 __wrap__ZTVSt12out_of_range
0001127f __wrap__ZTVSt12length_error
0001129b __wrap___gxx_personality_v0
000112b7 __wrap__Unwind_Resume
000112cd __wrap___cxa_throw
000112e0 __wrap___cxa_free_exception
000112fc __wrap__ZNSt19bad_optional_accessD1Ev
00011322 __wrap__Znam
0001132f __wrap__Znwm
0001133c __wrap__ZSt9terminatev
00011353 __wrap__ZNSt11logic_errorC2EPKc
00011373 __wrap__ZNSt12length_errorD1Ev
00011392 __wrap__ZNSt20bad_array_new_lengthC1Ev
000113b9 __wrap___cxa_guard_acquire
000113d4 __wrap___cxa_rethrow
000113e9 __wrap__ZTISt20bad_array_new_length
0001140d __wrap__ZSt7nothrow
00011421 __wrap__ZTVN10__cxxabiv121__vmi_class_type_infoE
00011452 getauxval
0001145c __system_property_get
00011472 libc.so
0001147a LIBC
0001147f LIBC_R
00011486 $ORIGIN
0001148e liblog.so
00011498 libc++_shared.so
000114a9 libfbunwindstack.so
000114c0 APS2
00011a4b UUUUU+
00011a5b TUUUU
00011a80 EUUUUUUU
000140c4 %s, r14}
000140cd pop {
000140d3 Unsupported wRX register display
000140f4 Unsupported DX register display
00014114 Unsupported wCGR register display
00014136 Warning: PC is moving backwards: old 0x%lx new 0x%lx
0001416b PC 0x%lx
00014174 %02hhx
0001417b Unsupported for standard dex
000141b8 Raw Data: 0x%02x
000141cc Warning: PC is moving backwards: old 0x%x new 0x%x
000141ff r%zu
00014204 wCGR%zu
0001420f Reparse: maps_.size() < last_map_idx after Parse() maps_.size() %u last_map_idx %u
00014262 Reparse: last_map_idx %u nullptr pos %u num_deleted_old_entries %u num_deleted_new_entries %u newSize %u maps_.size() %u search_map_idx %u
000142ed Reparse: Element: was_null %u name %s start %u end %u offset %u flags %u elf_fields %u
00014344 Reparse: begin_before %u end_before %u begin_after %u end_after %u
00014387 Reparse: last_map_idx %u search_map_idx %u num_deleted_old_entries %u num_deleted_new_entries %u maps_.size() %u
000143f8 Reparse: maps_.size() decreased after fixing up prev next last_map_idx %u search_map_idx %u num_deleted_old_entries %u num_deleted_new_entries %u new_map_idx %u old_map_idx %u orig_map_size %u maps_.size() %u
000144c9 Reparse: maps_.size() decreased after setting prev next last_map_idx %u search_map_idx %u num_deleted_old_entries %u num_deleted_new_entries %u new_map_idx %u old_map_idx %u orig_map_size %u maps_.size() %u
00014598 Reparse: maps_.size() decreased on for start last_map_idx %u search_map_idx %u num_deleted_old_entries %u num_deleted_new_entries %u new_map_idx %u old_map_idx %u orig_map_size %u maps_.size() %u
0001465c Reparse: maps_.size() decreased after setting element to nullptr last_map_idx %u search_map_idx %u num_deleted_old_entries %u num_deleted_new_entries %u new_map_idx %u old_map_idx %u orig_map_size %u maps_.size() %u
00014734 Reparse: maps_.size() decreased after for loop last_map_idx %u search_map_idx %u num_deleted_old_entries %u num_deleted_new_entries %u new_map_idx %u old_map_idx %u exit_reason %u orig_map_size %u maps_.size() %u
00014809 .text
00014813 /proc/self/maps
00014823 %s%s%.*s
0001482c %*s%s
00014832 %s%s
00014837 Reparse: dump_after %s
0001484e Reparse: dump_before %s
00014866 Failed to open dex file '%s' from memory: %s
00014893 Failed to initialize DEX file support: %s
000148bd sigaction failed: %s
000148d2 string_view::substr
000148e6 Check failed: begin_ != nullptr
00014906 __dex_debug_descriptor
0001491d __jit_debug_descriptor
00014934 vector
0001493e .eh_frame_hdr
00014954 fbandroid/native/aosp_libs/libunwindstack/DwarfMemory.cpp
0001498e fbandroid/native/aosp_libs/libunwindstack/ArmExidx.cpp
000149c5 fbandroid/native/aosp_libs/libunwindstack/Unwinder.cpp
00014a0c libart.so
00014a16 libartd.so
00014a21  unknown
00014a2a Illegal
00014a32 libunwindstack
00014a41 fb-unwindstack
00014a60 finish
00014a67 ro.arch
00014a6f fbandroid/native/aosp_libs/libunwindstack/GlobalDebugImpl.h
00014aab fbandroid/native/aosp_libs/libdexfile/dex/dex_file.h
00014ae0 sig-safe-log
00014aed 0123456789abcdef
00014afe &class_def
00014b09 data_size
00014b13 data_base
00014b1d Spare
00014b23 .eh_frame
00014b2d .debug_frame
00014b3a Invalid or truncated dex file
00014b58 Refuse to unwind
00014b69 DW_CFA_offset register(%d) %ld
00014b88 .note.gnu.build-id
00014b9b condition_variable timed_wait failed
00014bc0 pthread_cond_timedwait for value %d failed
00014beb condition_variable::timed wait: mutex not locked
00014c1c -r%d
00014c21 vsp = r%d
00014c2b pop {d%d
00014c34 -d%d
00014c39 pop {wR%d
00014c43 -wR%d
00014c49 DW_CFA_advance_loc %d
00014c5f vsp = vsp - %d
00014c6e vsp = vsp + %d
00014c80 fbandroid/native/aosp_libs/libdexfile/external/dex_file_ext.cc
00014cbf fbandroid/native/aosp_libs/libdexfile/dex/dex_file_loader.cc
00014cfc fbandroid/native/aosp_libs/libdexfile/dex/dex_file.cc
00014d32 (byte >> 4) == 0xa
00014d45 .gnu_debugdata
00014d54 .data
00014d5a class_defs_
00014d66 class_defs_ + header_->class_defs_size_
00014d8e [page size compat]
00014da1 [cantunwind]
00014dae [Reserved]
00014dc3 arch != ARCH_UNKNOWN
00014dd8 arch_ != ARCH_UNKNOWN
00014dee 0123456789ABCDEF
00014dff <NULL>
00014e06 <<invalid-method-idx-%d>>
00014e20 , 0u=
00014e26  (&class_def=
00014e34  (data_size=
00014e41 , data_base=
00014e4e  (base=
00014e56 , class_defs_=
00014e65 , class_defs_ + header_->class_defs_size_=
00014e90  (size_=
00014e99 , 0U=
00014ea7 short;
00014eae int;
00014eb3 float;
00014eba char;
00014ec0 boolean;
00014ec9 long;
00014ecf byte;
00014ed5 double;
00014edd void;
00014ee3 Raw Data:
00014eed (byte >> 4) == 0x9
00014f0b (byte >> 4) == 0x8
00014f21 pop {d8
00014f29 (byte & ~0x07) == 0xc8
00014f40 (byte & ~0x07) == 0xb8
00014f90 pop {r4
00014fa4 (byte >> 6) == 0x3
00014fc6 (byte >> 6) == 0x2
00014ffa Raw Data: 0x00 0x00 0x00 0x01
0001501e (byte & ~0x07) == 0xd0
00015035 (byte & ~0x07) == 0xc0
00015058 pop {wR10
00015062 exynos9810
0001506d (encoding & 0x0f) == 0
00015084 /dev/
0001508a ashmem/
00015092 /proc/
00015099 Failed to create pthread key.
000150b7 Attempt to set new register, but cfa is not already set to a register.
000150fe Attempt to set offset, but cfa is not set to a register.
00015137 Warning: Attempt to restore without remember.
00015165 Invalid: restore while processing cie.
0001518c Timed out waiting for unwind thread to indicate it completed.
000151ca Timed out waiting for signal handler to indicate it finished.
00015208 Timed out waiting for signal handler to get ucontext data.
00015245 (deleted)
0001524f DW_CFA_restore register(%d)
0001526b Check failed: ::art::IsAligned<alignof(Header)>(begin_)
000152a3 Illegal (Only valid on aarch64)
000152c3  register(
000152ce Cannot decompress "%s"
000152e5 Can not open dex file 
000152fc %s:%u] 
00015304 Check failed: 
00015319 Check failed: padding <= kSSizeMax
0001533d Check failed: size <= kSSizeMax
0001535e Check failed: count_ < kSSizeMax
00015380 Check failed: cur_arg < max_args
000153a2 %s:%d: %s
000153ad pid %d, tid %d: Received a spurious thread signal
000153e0 Check failed: ch
000153f2 Check failed: padding <= max_padding
00015418 Check failed: arg.type == Arg::INT || arg.type == Arg::UINT
00015455 Check failed: arg.type == Arg::POINTER || arg.type == Arg::STRING
00015498 Check failed: arg.type == Arg::STRING
000154bf Check failed: inc <= kSSizeMax - 1
000154e3 Check failed: !sign || base == 10
00015506 Check failed: size > 0
0001551e Check failed: !(sign && prefix && *prefix)
0001554a Check failed: padding <= max_padding / 10 && 10 * padding <= max_padding - (ch - '0')
000155a1 Check failed: src[0] != '%' || src[1] == '%'
000155cf NSt6__ndk110__function6__funcIN7android4base10LogdLoggerENS_9allocatorIS4_EEFvNS3_5LogIdENS3_11LogSeverityEPKcSA_jSA_EEE
00015648 NSt6__ndk110__function6__baseIFvN7android4base5LogIdENS3_11LogSeverityEPKcS7_jS7_EEE
0001569d N7android4base10LogdLoggerE
000156b9 NSt6__ndk110__function6__funcIPFvPKcENS_9allocatorIS5_EES4_EE
000156f7 NSt6__ndk110__function6__baseIFvPKcEEE
0001571e PFvPKcE
00015726 FvPKcE
000157a0 N3art14CompactDexFileE
000157c2 555555
000157d1 N3art7DexFileE
000157e0 N3art13DexFileLoaderE
000157f6 N3art15StandardDexFileE
0001588b vRQ>
000158ba 8STs
000158f4 LwH'
0001592d 7zXZ
000159a0 N11unwindstack20AndroidLocalUnwinderE
000159c6 N11unwindstack15AndroidUnwinderE
000159e7 NSt6__ndk120__shared_ptr_pointerIPN11unwindstack18LocalUpdatableMapsENS_10shared_ptrINS1_4MapsEE27__shared_ptr_default_deleteIS5_S2_EENS_9allocatorIS2_EEEE
00015a83 NSt6__ndk110shared_ptrIN11unwindstack4MapsEE27__shared_ptr_default_deleteIS2_NS1_18LocalUpdatableMapsEEE
00015aec NSt6__ndk114default_deleteIN11unwindstack18LocalUpdatableMapsEEE
00015b2d NSt6__ndk120__shared_ptr_pointerIPN11unwindstack10RemoteMapsENS_10shared_ptrINS1_4MapsEE27__shared_ptr_default_deleteIS5_S2_EENS_9allocatorIS2_EEEE
00015bc1 NSt6__ndk110shared_ptrIN11unwindstack4MapsEE27__shared_ptr_default_deleteIS2_NS1_10RemoteMapsEEE
00015c22 NSt6__ndk114default_deleteIN11unwindstack10RemoteMapsEEE
00015c88 N7art_api3dex7DexFileE
00015c9f NSt6__ndk120__shared_ptr_emplaceIKNS_12basic_stringIcNS_11char_traitsIcEENS_9allocatorIcEEEENS4_IS6_EEEE
00015d08 NSt6__ndk120__shared_ptr_pointerIPN11unwindstack7DexFileENS_10shared_ptrIS2_E27__shared_ptr_default_deleteIS2_S2_EENS_9allocatorIS2_EEEE
00015d91 NSt6__ndk110shared_ptrIN11unwindstack7DexFileEE27__shared_ptr_default_deleteIS2_S2_EE
00015de7 NSt6__ndk114default_deleteIN11unwindstack7DexFileEEE
00015e1c NSt6__ndk120__shared_ptr_pointerIPN11unwindstack12MemoryBufferENS_14default_deleteIS2_EENS_9allocatorIS2_EEEE
00015e8a NSt6__ndk114default_deleteIN11unwindstack12MemoryBufferEEE
00015ec5 NSt6__ndk120__shared_ptr_pointerIPN11unwindstack7DexFile10DexFileApiENS_10shared_ptrIS3_E27__shared_ptr_default_deleteIS3_S3_EENS_9allocatorIS3_EEEE
00015f5a NSt6__ndk110shared_ptrIN11unwindstack7DexFile10DexFileApiEE27__shared_ptr_default_deleteIS3_S3_EE
00015fbc NSt6__ndk114default_deleteIN11unwindstack7DexFile10DexFileApiEEE
00016001 N11unwindstack15GlobalDebugImplINS_7DexFileEjNS_8Uint64_PEEE
0001603e N11unwindstack20GlobalDebugInterfaceINS_7DexFileEEE
00016072 N11unwindstack6GlobalE
00016089 N11unwindstack15GlobalDebugImplINS_7DexFileEjNS_8Uint64_AEEE
000160c6 N11unwindstack15GlobalDebugImplINS_7DexFileEmNS_8Uint64_AEEE
0001610e 4:9"
00016113 R1BDW_CFA_nop
00016140 DW_CFA_set_loc
0001616a DW_CFA_advance_loc1
00016194 DW_CFA_advance_loc2
000161be DW_CFA_advance_loc4
000161e8 DW_CFA_offset_extended
00016212 DW_CFA_restore_extended
0001623c DW_CFA_undefined
00016266 DW_CFA_same_value
00016290 DW_CFA_register
000162ba DW_CFA_remember_state
000162e4 DW_CFA_restore_state
0001630e DW_CFA_def_cfa
00016338 DW_CFA_def_cfa_register
00016362 DW_CFA_def_cfa_offset
0001638c DW_CFA_def_cfa_expression
000163b6 DW_CFA_expression
000163e0 DW_CFA_offset_extended_sf
0001640a DW_CFA_def_cfa_sf
00016434 DW_CFA_def_cfa_offset_sf
0001645e DW_CFA_val_offset
00016488 DW_CFA_val_offset_sf
000164b2 DW_CFA_val_expression
00016878 DW_CFA_AARCH64_negate_ra_state
000168a2 DW_CFA_GNU_args_size
000168cc DW_CFA_GNU_negative_offset_extended
00016b96 N11unwindstack8DwarfCfaIjEE
00016bb2 N11unwindstack8DwarfCfaImEE
00016bce N11unwindstack7DwarfOpIjEE
00016be9 N11unwindstack7DwarfOpImEE
00016c04 N11unwindstack19DwarfEhFrameWithHdrIjEE
00016c2c N11unwindstack16DwarfSectionImplIjEE
00016c51 N11unwindstack12DwarfSectionE
00016c6f N11unwindstack19DwarfEhFrameWithHdrImEE
00016c97 N11unwindstack16DwarfSectionImplImEE
00016cbc N11unwindstack11DwarfMemoryE
00016cde QQQQ
00016ce3 ;@[E
00016cf2 KKKK!5:U?
00016e4d DW_OP_addr
00016eaa DW_OP_deref
00016ee8 DW_OP_const1u
00016f07 DW_OP_const1s
00016f26 DW_OP_const2u
00016f45 DW_OP_const2s
00016f64 DW_OP_const4u
00016f83 DW_OP_const4s
00016fa2 DW_OP_const8u
00016fc1 DW_OP_const8s
00016fe0 DW_OP_constu
00016fff DW_OP_consts
0001701e DW_OP_dup
0001703d DW_OP_drop
0001705c DW_OP_over
0001707b DW_OP_pick
0001709a DW_OP_swap
000170b9 DW_OP_rot
000170d8 DW_OP_xderef
000170f7 DW_OP_abs
00017116 DW_OP_and
00017135 DW_OP_div
00017154 DW_OP_minus
00017173 DW_OP_mod
00017192 DW_OP_mul
000171b1 DW_OP_neg
000171d0 DW_OP_not
000171ef DW_OP_or
0001720e DW_OP_plus
0001722d DW_OP_plus_uconst
0001724c DW_OP_shl
0001726b DW_OP_shr
0001728a DW_OP_shra
000172a9 DW_OP_xor
000172c8 DW_OP_bra
000172e7 DW_OP_eq
00017306 DW_OP_ge
00017325 DW_OP_gt
00017344 DW_OP_le
00017363 DW_OP_lt
00017382 DW_OP_ne
000173a1 DW_OP_skip
000173c0 DW_OP_lit0
000173df DW_OP_lit1
000173fe DW_OP_lit2
0001741d DW_OP_lit3
0001743c DW_OP_lit4
0001745b DW_OP_lit5
0001747a DW_OP_lit6
00017499 DW_OP_lit7
000174b8 DW_OP_lit8
000174d7 DW_OP_lit9
000174f6 DW_OP_lit10
00017515 DW_OP_lit11
00017534 DW_OP_lit12
00017553 DW_OP_lit13
00017572 DW_OP_lit14
00017591 DW_OP_lit15
000175b0 DW_OP_lit16
000175cf DW_OP_lit17
000175ee DW_OP_lit18
0001760d DW_OP_lit19
0001762c DW_OP_lit20
0001764b DW_OP_lit21
0001766a DW_OP_lit22
00017689 DW_OP_lit23
000176a8 DW_OP_lit24
000176c7 DW_OP_lit25
000176e6 DW_OP_lit26
00017705 DW_OP_lit27
00017724 DW_OP_lit28
00017743 DW_OP_lit29
00017762 DW_OP_lit30
00017781 DW_OP_lit31
000177a0 DW_OP_reg0
000177bf DW_OP_reg1
000177de DW_OP_reg2
000177fd DW_OP_reg3
0001781c DW_OP_reg4
0001783b DW_OP_reg5
0001785a DW_OP_reg6
00017879 DW_OP_reg7
00017898 DW_OP_reg8
000178b7 DW_OP_reg9
000178d6 DW_OP_reg10
000178f5 DW_OP_reg11
00017914 DW_OP_reg12
00017933 DW_OP_reg13
00017952 DW_OP_reg14
00017971 DW_OP_reg15
00017990 DW_OP_reg16
000179af DW_OP_reg17
000179ce DW_OP_reg18
000179ed DW_OP_reg19
00017a0c DW_OP_reg20
00017a2b DW_OP_reg21
00017a4a DW_OP_reg22
00017a69 DW_OP_reg23
00017a88 DW_OP_reg24
00017aa7 DW_OP_reg25
00017ac6 DW_OP_reg26
00017ae5 DW_OP_reg27
00017b04 DW_OP_reg28
00017b23 DW_OP_reg29
00017b42 DW_OP_reg30
00017b61 DW_OP_reg31
00017b80 DW_OP_breg0
00017b9f DW_OP_breg1
00017bbe DW_OP_breg2
00017bdd DW_OP_breg3
00017bfc DW_OP_breg4
00017c1b DW_OP_breg5
00017c3a DW_OP_breg6
00017c59 DW_OP_breg7
00017c78 DW_OP_breg8
00017c97 DW_OP_breg9
00017cb6 DW_OP_breg10
00017cd5 DW_OP_breg11
00017cf4 DW_OP_breg12
00017d13 DW_OP_breg13
00017d32 DW_OP_breg14
00017d51 DW_OP_breg15
00017d70 DW_OP_breg16
00017d8f DW_OP_breg17
00017dae DW_OP_breg18
00017dcd DW_OP_breg19
00017dec DW_OP_breg20
00017e0b DW_OP_breg21
00017e2a DW_OP_breg22
00017e49 DW_OP_breg23
00017e68 DW_OP_breg24
00017e87 DW_OP_breg25
00017ea6 DW_OP_breg26
00017ec5 DW_OP_breg27
00017ee4 DW_OP_breg28
00017f03 DW_OP_breg29
00017f22 DW_OP_breg30
00017f41 DW_OP_breg31
00017f60 DW_OP_regx
00017f7f DW_OP_fbreg
00017f9e DW_OP_bregx
00017fbc 	DW_OP_piece
00017fdc DW_OP_deref_size
00017ffb DW_OP_xderef_size
0001801a DW_OP_nop
00018039 DW_OP_push_object_address
00018058 DW_OP_call2
00018077 DW_OP_call4
00018096 DW_OP_call_ref
000180b5 DW_OP_form_tls_address
000180d4 DW_OP_call_frame_cfa
000180f3 DW_OP_bit_piece
00018112 DW_OP_implicit_value
00018131 DW_OP_stack_value
00018d03 C0WW
00018d0f . KK
00018d17 N11unwindstack15DwarfDebugFrameIjEE
00018d3b N11unwindstack15DwarfDebugFrameImEE
00018d5f N11unwindstack12DwarfEhFrameIjEE
00018d80 N11unwindstack12DwarfEhFrameImEE
00018da1 N11unwindstack16ElfInterfaceImplINS_10ElfTypes32EEE
00018dd5 N11unwindstack16ElfInterfaceImplINS_10ElfTypes64EEE
00018e13 N11unwindstack12ElfInterfaceE
00018e31 NSt6__ndk120__shared_ptr_emplaceIN11unwindstack8MemoryXzENS_9allocatorIS2_EEEE
00018e8a N11unwindstack15ElfInterfaceArmE
00018eab N11unwindstack8ArmExidxE
00018ec4 NSt6__ndk110__function6__funcIZN11unwindstack6Global19FindAndReadVariableEPNS2_4MapsEPKcE3$_0NS_9allocatorIS8_EEFbPNS2_7MapInfoEEEE
00018f48 NSt6__ndk110__function6__baseIFbPN11unwindstack7MapInfoEEEE
00018f84 ZN11unwindstack6Global19FindAndReadVariableEPNS_4MapsEPKcE3$_0
00018fc3 N11unwindstack3ElfE
00018fd7 NSt6__ndk120__shared_ptr_pointerIPN11unwindstack3ElfENS_10shared_ptrIS2_E27__shared_ptr_default_deleteIS2_S2_EENS_9allocatorIS2_EEEE
0001905c NSt6__ndk110shared_ptrIN11unwindstack3ElfEE27__shared_ptr_default_deleteIS2_S2_EE
000190ae NSt6__ndk114default_deleteIN11unwindstack3ElfEEE
000190df NSt6__ndk120__shared_ptr_pointerIPN11unwindstack12MemoryBufferENS_10shared_ptrINS1_6MemoryEE27__shared_ptr_default_deleteIS5_S2_EENS_9allocatorIS2_EEEE
00019177 NSt6__ndk110shared_ptrIN11unwindstack6MemoryEE27__shared_ptr_default_deleteIS2_NS1_12MemoryBufferEEE
000191dc N11unwindstack15GlobalDebugImplINS_3ElfEjNS_8Uint64_PEEE
00019215 N11unwindstack20GlobalDebugInterfaceINS_3ElfEEE
00019245 N11unwindstack15GlobalDebugImplINS_3ElfEjNS_8Uint64_AEEE
0001927e N11unwindstack15GlobalDebugImplINS_3ElfEmNS_8Uint64_AEEE
000192bc NSt6__ndk120__shared_ptr_emplaceIN11unwindstack18MemoryFileAtOffsetENS_9allocatorIS2_EEEE
00019316 NSt6__ndk120__shared_ptr_pointerIPN11unwindstack11MemoryRangeENS_10shared_ptrINS1_6MemoryEE27__shared_ptr_default_deleteIS5_S2_EENS_9allocatorIS2_EEEE
000193ad NSt6__ndk110shared_ptrIN11unwindstack6MemoryEE27__shared_ptr_default_deleteIS2_NS1_11MemoryRangeEEE
00019411 NSt6__ndk114default_deleteIN11unwindstack11MemoryRangeEEE
0001944b NSt6__ndk120__shared_ptr_pointerIPN11unwindstack12MemoryRangesENS_10shared_ptrINS1_6MemoryEE27__shared_ptr_default_deleteIS5_S2_EENS_9allocatorIS2_EEEE
000194e3 NSt6__ndk110shared_ptrIN11unwindstack6MemoryEE27__shared_ptr_default_deleteIS2_NS1_12MemoryRangesEEE
00019548 NSt6__ndk114default_deleteIN11unwindstack12MemoryRangesEEE
0001958f N11unwindstack10RemoteMapsE
000195ab N11unwindstack4MapsE
000195c0 N11unwindstack18LocalUpdatableMapsE
000195e4 NSt6__ndk120__shared_ptr_emplaceIN11unwindstack7MapInfoENS_9allocatorIS2_EEEE
00019632 NSt6__ndk110__function6__funcIZN11unwindstack4Maps5ParseEvE3$_0NS_9allocatorIS4_EEFvRKN7android8procinfo7MapInfoEEEE
000196a7 NSt6__ndk110__function6__baseIFvRKN7android8procinfo7MapInfoEEEE
000196e8 ZN11unwindstack4Maps5ParseEvE3$_0
0001970a N11unwindstack12MemoryBufferE
00019728 N11unwindstack6MemoryE
0001973f N11unwindstack11MemoryCacheE
0001975c N11unwindstack15MemoryCacheBaseE
0001977d N11unwindstack11MemoryLocalE
0001979a N11unwindstack12MemoryRemoteE
000197b8 N11unwindstack18MemoryFileAtOffsetE
000197dc N11unwindstack11MemoryRangeE
000197f9 N11unwindstack12MemoryRangesE
00019817 N11unwindstack17MemoryThreadCacheE
0001983a NSt6__ndk120__shared_ptr_pointerIPN11unwindstack6MemoryENS_10shared_ptrIS2_E27__shared_ptr_default_deleteIS2_S2_EENS_9allocatorIS2_EEEE
000198c2 NSt6__ndk110shared_ptrIN11unwindstack6MemoryEE27__shared_ptr_default_deleteIS2_S2_EE
00019917 NSt6__ndk114default_deleteIN11unwindstack6MemoryEEE
0001994b NSt6__ndk120__shared_ptr_pointerIPN11unwindstack11MemoryLocalENS_10shared_ptrINS1_6MemoryEE27__shared_ptr_default_deleteIS5_S2_EENS_9allocatorIS2_EEEE
000199e2 NSt6__ndk110shared_ptrIN11unwindstack6MemoryEE27__shared_ptr_default_deleteIS2_NS1_11MemoryLocalEEE
00019a46 NSt6__ndk114default_deleteIN11unwindstack11MemoryLocalEEE
00019a80 NSt6__ndk120__shared_ptr_pointerIPN11unwindstack12MemoryRemoteENS_10shared_ptrINS1_6MemoryEE27__shared_ptr_default_deleteIS5_S2_EENS_9allocatorIS2_EEEE
00019b18 NSt6__ndk110shared_ptrIN11unwindstack6MemoryEE27__shared_ptr_default_deleteIS2_NS1_12MemoryRemoteEEE
00019b7d NSt6__ndk114default_deleteIN11unwindstack12MemoryRemoteEEE
00019bb8 NSt6__ndk120__shared_ptr_pointerIPN11unwindstack11MemoryCacheENS_10shared_ptrINS1_6MemoryEE27__shared_ptr_default_deleteIS5_S2_EENS_9allocatorIS2_EEEE
00019c4f NSt6__ndk110shared_ptrIN11unwindstack6MemoryEE27__shared_ptr_default_deleteIS2_NS1_11MemoryCacheEEE
00019cb3 NSt6__ndk114default_deleteIN11unwindstack11MemoryCacheEEE
00019ced NSt6__ndk120__shared_ptr_pointerIPN11unwindstack17MemoryThreadCacheENS_10shared_ptrINS1_6MemoryEE27__shared_ptr_default_deleteIS5_S2_EENS_9allocatorIS2_EEEE
00019d8a NSt6__ndk110shared_ptrIN11unwindstack6MemoryEE27__shared_ptr_default_deleteIS2_NS1_17MemoryThreadCacheEEE
00019df4 NSt6__ndk114default_deleteIN11unwindstack17MemoryThreadCacheEEE
00019e34 NSt6__ndk120__shared_ptr_pointerIPN11unwindstack19MemoryOfflineBufferENS_10shared_ptrINS1_6MemoryEE27__shared_ptr_default_deleteIS5_S2_EENS_9allocatorIS2_EEEE
00019ed3 NSt6__ndk110shared_ptrIN11unwindstack6MemoryEE27__shared_ptr_default_deleteIS2_NS1_19MemoryOfflineBufferEEE
00019f3f NSt6__ndk114default_deleteIN11unwindstack19MemoryOfflineBufferEEE
00019f81 N11unwindstack8MemoryXzE
00019fa3 N11unwindstack7RegsArmE
00019fbb N11unwindstack8RegsImplIjEE
00019fd7 N11unwindstack4RegsE
00019fec N11unwindstack9RegsArm64E
0001a006 N11unwindstack8RegsImplImEE
0001a022 N11unwindstack7RegsX86E
0001a03a N11unwindstack10RegsX86_64E
0001a062 N11unwindstack7SymbolsE
0001a07a N11unwindstack14ThreadUnwinderE
0001a09a N11unwindstack8UnwinderE
0001a0b3 N11unwindstack15UnwinderFromPidE
0001a0d4 N11unwindstack9LocalMapsE
00027249 zPLR
0002bbbe @9L	@
0002c4e4 #	O)*u@
0002c67b p)hu8)	
0002c691 ii8J	
0002c878 h"@9
0002cadd =@q 
0002cbc3 T	4@
0002cd27 R(<@
0002cd4a @y	,@
0002d0e0 i"M)t
0002d7bd !P)J
0002d98c 	(E)A
0002d9c6 @yH}
0002f129 i`8)	
0002fcb1 i`8)	
00030713 T;h@)
00031095 p	*I
00031233 T	4@
000313a2 @9?%
000313b1 ki8J	
00031469 /B)*
000316a9 !KJK
0003171c @!@J
00031753 S-Ym
00031781 ii8)
00031794 @!@J
000317cc @!@J
0003180f J!>H
00031853 Jqhq
00031881 ii8)
00031894 @!@J
00031b50 ,	@9k-
00031baa @9.	@9l	
00031e09 	@9b
0003205b TKih8,kh8+k(8l
0003206b KLi(8
00032183 T+kh8Lih8
00032190 Ki(8+k(8
00032541 .A)L
00032694 +ih8J	
00032a51 ju8i
00032a5c Hk;8
00032d11 ih8Ni(8
00032d36 G)(!
00032d6e @8)]
00032d87 T	D@
00032ddf S)E*
00032df7 S.ymx
00032e53 SlA@y
00032e66 @8)]
00032eaa @8)]
00032f0b Klq@y }
00032f22 @8)]
00032f67 Si}	
00032fa3 RJin8
00032fbc 1Yqx
00033041 "@y,}
00033056 @8)]
0003306a @y1}
0003307e @8)]
0003309e @y,}
000330b2 @8)]
0003312a @8)]
00033187 SNE.
000331aa @8)]
00033254  )@zh
000332b6 @8)]
000332c2 IK)}
000332eb SMYox
000332fe @8)]
0003337c i*H)
00033387 4x>@
000333e8 m*I)
0003348a @8!\
00033495 X|x,|
0003351e @y0~
000335a1 {1x4|
000335ad {px1"
000335ba @8!\
000335f5 {0x&|
0003360e @8!\
00033649 {,x4|
00033662 @8!\
0003369d {0x4|
000336b6 @8!\
000336f1 {,x4|
0003370a @8!\
0003371e FK4~
000337d6 @88"
000337e9 ia8,
00033841 X+xk1
00033859 X+xL
00033929 Z|x!~
00033951 Z<xl
0003395d ip8lh(8,
000339a2 @8{_
00033a7e @8{_
00033b36 @8{_
00033b92 @8Z_
00033be8 lh(8&
00033c3d Z+x 
00033c78 Q[kx!|
00033cb0 M[+x
00033ce6 @8!\
00033d6b *!"@y
00033de6 @81^
00033e69 y1xN
00033e8e @81^
00033e99 Xlx0~
00033ede @8!\
00033ee9 Ypx&|
00033f2d y4x#
00033f9d x,x6"
00033fbe @8!\
00034059 x1x8|
00034065 Xpx1"
00034072 @8!\
000340ad x0x5|
000340c6 @8!\
00034101 x,x5|
0003411a @8!\
00034155 x0x5|
0003416e @8!\
000341ee @8!\
000341f9 Zpx4|
00034276 @80\
000342b6 @8!\
0003430a @81^
0003431b SAYpx
00034354 Ay0x
0003435b SPYqx
000343ac Py1xQ
000343b3 SPYlx
000343be @8Z_
00034403 *QY,x
0003448c qhl8
00034497 qqh(8
000344b5 jl81
000344e2 @8!\
0003450c m2	)j:
00034553 Ti^@
00034a0a  n@i
00034a85 Su)j
00034af9 )BJJ
00034b25 )CJJ
00034b4d )SJJ
00034b79 )WJJ
00034ba1 )ZJJ
00034bc9 )FJJ
00034bf1 )UJJ
00034c21 )[JJ
00034c55 )DJJ
00034c91 )@J@
00034ca0 ((~)5P|)'
00034d07 JV)VJ
000353e9 j68?
0003543f T`jh
000355ef T)h(8)
00035713 S-Ym
0003571b SNYn
00035749 ii8)
000357b7 q$	G
000358d4 Lii8k	
00035adc Lii8k	
00035cca 86`B7
00035d3b TaB:
00035db3 Tijh8
0003612c @!@y
0003636c jyhx)	
00036392 @9JMG
00036398 Jih8?
000363bc *i(8h
000363d1 !@yC
000367c2 @8Jih8
00036804 *i(8
0003686b T*	@
00036877 T)1@9?
000368f0 h!@y
00036b2f 5h&@
00036c12 	JjYj
00036c18 H!HJ
00037063 R!LG
000372bf T*ih8
000372dd C@qH
00037617 T)k|8
00037790 hBA9
00038090 h"A9
00038151  @9H
00038311  @9H
000383f5 `@9H
0003879d `@9H
00038a3b 6tFA9!
00038aa4 tFA9!
00039017 7`.@
00039097 S`.@
000390b7 7`.@
00039255 s_8`b
00039269 c_x`b
00039458 +ih8J	
000395ac (ih8(
00039648 Lii8k	
00039675 ii8J	
000397af 7h&@
000398fe A98o
000399d1 80.	
00039f6d C_8)%
00039fdb *hj)
00039ffd 80.	
0003a30d C_8i
0003a668 Jq@9?
0003a728 jb@9
0003a8fd C_8	
0003a9c5 C_8)%
0003aa45 C_8		
0003aabd C_8(
0003abad 80.	
0003acc1 C_8	
0003ad61 C_8	
0003ae09 C_8i
0003b911 q@9?
0003c65f T	)@
0003cbc9  @9H
0003d6d0 +ih8J	
0003e1a3 4(kx
0003e1b7 R(kx
0003e1ed +A)?
0003fe59 +@)?
00040615 C_8	}F
0004062c +ki8J	
0004066e @9?<
000409cd 3@9	}F
000409e1 jh8)	
00040bb2 _8?<
0004115c +ih8J	
00041424 *Q@)
00041624 *Q@)
00041740 4U@)
0004196c +Q@)U
000419e8 J-@))A@
00041a6c T-@))A@
00041ba0 J-@))A@
00041c20 J-@))A@
00041ca0 +Q@)U
00041d14 *%@))}@
00041ee3 Rh"@
00041efd C_8	}F
00041f10 *kh8)	
00041f56 @9?<
000421ed 3@9	}F
00042201 jh8)	
000423d2 _8?<
0004297c +ih8J	
00042f53 Th"@
00042feb Th"@
00043a27 T  @
00043c51 80.	
00043e84 !80.(
00043f41 80.	
000446fc !80.(
000447b9 80.	
00044b59 80.	
00044c35 80.	
00045bd4 (D@9h
00045c2d S_8`"
00045c35 c_8a
00045eb2 D9`"
00045ede D9`"
00045ef2 D9iRA
00046164 (D@9h
000461bd S_8`"
000461c5 c_8a
00046442 D9`"
0004646e D9`"
000469b9 80.	
00046d88 !80.(
00046e45 80.	
00046f55 80.	
00047324 !80.(
000473e1 80.	
00047784 +ih8J	
000478bd 3@9h
00047a7c +ih8J	
00047b84 +ih8J	
00047ca5 3@9h
00047d54 	i@9
00047d61 m@9_
00047ea7 Th&@
00048010 (k@9
00048030 7s@99w
000486cf R	=@
00048733 R	=@
000487cf R	=@
00048833 R+yj
0004885f 4h>@
000488db R+yj
000488e3 K(y*
00048907 4h>@
0004898b R*y(
000489bb K*y(
000489e6 ***y(
00048a27 R+yj
00048a2f *(y*
00048a73 R+yj
00048af7 R*y(
00048b3f R*y(
00048b87 R*y(
00048bcb R+yj
00048bd3 J(y*
00048bf7 4h"@
00048def R	!@
00048eef R	 @
00049134 	i@9
00049141 m@9_
0004927f Th&@
000493e8 (k@9
00049408 7s@99w
00049a4b R	=@
00049aaf R	=@
00049b4b R	=@
00049baf R+yj
00049c57 R+yj
00049d07 R*y(
00049da3 R+yj
00049def R+yj
00049e73 R*y(
00049ebb R*y(
00049f03 R*y(
00049f47 R+yj
0004a16b R	!@
0004a26b R	 @
0004b96d #@9`"
0004ba85 jh8)	
0004bad2 @9`"
0004be0e @9i~@
0004be1e @9`"
0004be4e @9`"
0004c328 +ih8J	
0004d091 #@9`"
0004d1a9 jh8)	
0004d1f6 @9`"
0004d372 @9i~@
0004d382 @9`"
0004d3b2 @9`"
0004d7f8 +ih8J	
0004ec0d ii8J	
0004ef23 =		@
0004f33b T		@
0004f55c +ih8J	
0004f643 =	!@
00050484 +ih8J	
0005090a 87hB
00050bb0 +ih8J	
000516f9 ii8J	
00051c19 80.	
00052008 !80.(
000520c5 80.	
0005228d 80.	
0005266c !80.(
00052729 80.	
00052839 80.	
00052c28 !80.(
00052ce5 80.	
00052e21 80.	
00052f58 h"@9
00053248 h"@9
00053310 h"@9
000534ac 	 @9
00053500 	 @9?
00053b78 h2@y(
00054652 @9	ii8
0005465e _8I!	
000548b4 !80.(
00054971 80.	
00054e18 !80.(
00054ed5 80.	
000550fd 80.	
000559f6 G)7)
00055c3c (d@y)`@y8 @
00055c57 Ti^@y
00055c80 h^@y
00055c9c hb@y
00055cd8 ib@y
00055ceb Ti^@yj"@
00055f28 h^@y
00056b8c (|@y)x@y8
00056ba7 Tiv@y
00056bdc hv@y
00056bf8 hz@y
00056c34 iz@y
00056c47 Tiv@y
00056ddc hv@y
00057a48 	!A9?%
00057a60 Lii8k	
00058248 !80.(
00058305 80.	
00058804 +ih8J	
00058d5c !80.(
00058e19 80.	
00058f61  @9H
000591f0 h2@y?
000592a3 Tj2@
00059390 h2@y
00059770 +ih8J	
0005bf18 Ia[9
0005c644 	1@y?
0005da04 mij8
0005df13 2		@9?
0005e443 Th3@y
0005e483 7(kv
0005f395 hk8k
00060475 iz8)	
00060aa0 +ih8J	
0006222c hr@9
000622b4 	p@9
000626d2 @9) @9
00062aed 80.	
00062ec8 !80.(
00062f85 80.	
000631eb Tl	@
0006320b T`V@
00063601 *@yhr
00063ea5 `@9H
000640ac +ih8J	
0006415c +i`8J	
00064184 ) @9?
000641bf 63 B
0006435c ()G)_
000648df r"yu
000650fb RH|@
000652c3 r"yu
00066555 `@9H
00066ed9 O@y(
00067abc +ih8J	
0006815c +ih8J	
00068b9c +ih8J	
000691ec !80.(
000692a9 80.	
0006a2e8 	a@9?
0006a2fc *a@9_
0006a317 T	a@9i
0006a350 	a@9?
0006a364 *a@9_
0006a377 9	a@9?
0006a387 T		@
0006a3cc )a@9?
0006a3fc 	a@9
0006a45c 	a@9
0006a4fc ( @9
0006af6f oi|@
0006b0b8 hbA9
0006b0c3 T`*@
0006b17b R  	
0006b578 h#@9x
0006b7ad C\8h
0006babf 6hB@
0006bae3 T`~@
0006c177 *h'C
0006c22e _8	i88h'C
0006c2ff R	i88h'C
0006c399 i48h'C
0006c519 ii8"
0006c5a2 @9a7
0006c608 I!@9?!
0006c63c J!@9
0006c77d j88h
0006c8de @9(i68
0006c92c (ih8
0006c934 (i68
0006cb07 Th'C
0006cb7c 	!@9?!
0006cbed j88h'C
0006ccc4 ?i(8
0006cd44 _i(8*
0006ce48 :i(8
0006cf78 !i(8h&C
0006d093 Thk38('C
0006d178 ?i(8
0006d1d5 B_9p
0006d295 B_9p
0006d2c5 B_9p
0006d2f5 B_9p
0006d325 B_9p
0006d355 B_9p
00071651 .init_array
0007165d .fini_array
00071669 .text
0007166f .got
00071674 .note.android.ident
00071688 .got.plt
00071691 .rela.plt
0007169b .bss
000716a0 .dynstr
000716a8 .eh_frame_hdr
000716b6 .gnu.version_r
000716c5 .data.rel.ro
000716d2 .relr.dyn
000716dc .rela.dyn
000716e6 .gnu.version
000716f3 .dynsym
000716fb .gnu.hash
00071705 .relro_padding
00071714 .eh_frame
0007171e .gcc_except_table
00071730 .note.gnu.build-id
00071743 .dynamic
0007174c .shstrtab
00071756 .rodata
0007175e .data
